ccollections
Counter
p1
((dp2
(I2725
I2726
tp3
I1
s(I2614
I2615
tp4
I1
s(I3146
I3147
tp5
I1
s(I2685
I2686
tp6
I1
s(I2710
I2671
tp7
I1
s(I1103
I4063
tp8
I1
s(I3636
I3637
tp9
I1
s(I2600
I2601
tp10
I1
s(I2850
I2851
tp11
I1
s(I2911
I2912
tp12
I1
s(I3530
I3531
tp13
I1
s(I3155
I3156
tp14
I1
s(I2783
I2784
tp15
I1
s(I156
I3238
tp16
I1
s(I3744
I3745
tp17
I1
s(I3211
I209
tp18
I1
s(I3181
I3182
tp19
I1
s(I2608
I2609
tp20
I1
s(I3232
I3233
tp21
I1
s(I3404
I3405
tp22
I1
s(I3627
I3628
tp23
I1
s(I482
I3701
tp24
I1
s(I2686
I354
tp25
I1
s(I2430
I2103
tp26
I1
s(I3926
I3927
tp27
I1
s(I2841
I2842
tp28
I1
s(I3197
I3198
tp29
I1
s(I2666
I2667
tp30
I1
s(I267
I3859
tp31
I1
s(I3776
I3777
tp32
I1
s(I3365
I3366
tp33
I1
s(I631
I1894
tp34
I1
s(I2979
I2980
tp35
I1
s(I3108
I3109
tp36
I1
s(I3104
I3105
tp37
I1
s(I3233
I3234
tp38
I1
s(I2707
I2708
tp39
I1
s(I3369
I475
tp40
I1
s(I3010
I2834
tp41
I1
s(I3613
I3614
tp42
I1
s(I3264
I3059
tp43
I1
s(I2665
I2666
tp44
I1
s(I3795
I3796
tp45
I1
s(I3384
I3385
tp46
I1
s(I3342
I3343
tp47
I1
s(I3368
I3369
tp48
I1
s(I3883
I3884
tp49
I1
s(I4045
I4046
tp50
I1
s(I3443
I3444
tp51
I1
s(I3450
I3451
tp52
I1
s(I2849
I2850
tp53
I1
s(I3624
I3625
tp54
I1
s(I3434
I3435
tp55
I1
s(I2596
I1180
tp56
I1
s(I2595
I547
tp57
I1
s(I3693
I3694
tp58
I1
s(I3555
I3556
tp59
I1
s(I1048
I2596
tp60
I1
s(I3117
I3118
tp61
I1
s(I3690
I304
tp62
I1
s(I3773
I494
tp63
I1
s(I852
I2857
tp64
I1
s(I3424
I3425
tp65
I1
s(I2767
I2768
tp66
I1
s(I2621
I2622
tp67
I1
s(I3271
I3272
tp68
I1
s(I3022
I3023
tp69
I1
s(I3350
I3293
tp70
I1
s(I3653
I3654
tp71
I1
s(I1340
I553
tp72
I1
s(I2835
I2836
tp73
I1
s(I1974
I3280
tp74
I1
s(I3612
I3613
tp75
I1
s(I3175
I3176
tp76
I1
s(I2606
I2607
tp77
I1
s(I269
I4009
tp78
I1
s(I2994
I2995
tp79
I1
s(I3332
I3333
tp80
I1
s(I3987
I841
tp81
I1
s(I3014
I3015
tp82
I1
s(I2898
I354
tp83
I1
s(I3316
I3317
tp84
I1
s(I3551
I3552
tp85
I1
s(I2878
I2879
tp86
I1
s(I2870
I2871
tp87
I1
s(I2855
I2856
tp88
I1
s(I3811
I3812
tp89
I1
s(I2768
I1490
tp90
I1
s(I2808
I2068
tp91
I1
s(I4017
I4018
tp92
I1
s(I2866
I2867
tp93
I1
s(I3004
I1572
tp94
I1
s(I104
I4141
tp95
I1
s(I3314
I460
tp96
I1
s(I3030
I3031
tp97
I1
s(I2863
I2864
tp98
I1
s(I2778
I2779
tp99
I1
s(I3132
I3133
tp100
I1
s(I2610
I2611
tp101
I1
s(I784
I3252
tp102
I1
s(I2792
I2793
tp103
I1
s(I2643
I2644
tp104
I1
s(I2770
I2771
tp105
I1
s(I895
I2636
tp106
I1
s(I2618
I2619
tp107
I1
s(I2653
I2654
tp108
I1
s(I3418
I3419
tp109
I1
s(I2645
I2646
tp110
I1
s(I2951
I2952
tp111
I1
s(I1486
I3090
tp112
I1
s(I76
I3577
tp113
I1
s(I3535
I810
tp114
I1
s(I2873
I2874
tp115
I1
s(I2740
I2741
tp116
I1
s(I4042
I1435
tp117
I1
s(I475
I2181
tp118
I1
s(I2875
I2876
tp119
I1
s(I3012
I3013
tp120
I1
s(I3460
I3461
tp121
I1
s(I1221
I3716
tp122
I1
s(I3535
I3605
tp123
I1
s(I2890
I2891
tp124
I1
s(I3648
I3649
tp125
I1
s(I3645
I3646
tp126
I1
s(I3983
I3984
tp127
I1
s(I3694
I3695
tp128
I1
s(I3105
I2995
tp129
I1
s(I3246
I3247
tp130
I1
s(I575
I3714
tp131
I1
s(I1274
I3547
tp132
I1
s(I4095
I4096
tp133
I1
s(I2609
I2610
tp134
I1
s(I3865
I3866
tp135
I1
s(I3139
I3140
tp136
I1
s(I3394
I3395
tp137
I1
s(I3617
I2809
tp138
I1
s(I3755
I3756
tp139
I1
s(I2891
I2892
tp140
I1
s(I3583
I1193
tp141
I1
s(I2672
I2673
tp142
I1
s(I2722
I2723
tp143
I1
s(I3973
I3974
tp144
I1
s(I2587
I2910
tp145
I1
s(I3540
I3541
tp146
I1
s(I1801
I2782
tp147
I2
s(I354
I69
tp148
I1
s(I3631
I3632
tp149
I1
s(I3243
I71
tp150
I1
s(I3292
I1360
tp151
I1
s(I2973
I2974
tp152
I1
s(I3391
I3392
tp153
I1
s(I3633
I3634
tp154
I1
s(I2857
I2858
tp155
I1
s(I2490
I2885
tp156
I1
s(I4122
I4123
tp157
I1
s(I3458
I3459
tp158
I1
s(I2804
I278
tp159
I1
s(I4058
I4059
tp160
I1
s(I2859
I2860
tp161
I1
s(I3217
I3218
tp162
I1
s(I3176
I3177
tp163
I1
s(I3209
I3210
tp164
I1
s(I3312
I3313
tp165
I1
s(I2964
I2965
tp166
I1
s(I2797
I2798
tp167
I1
s(I2843
I2844
tp168
I1
s(I131
I2689
tp169
I1
s(I3490
I3491
tp170
I1
s(I3029
I3030
tp171
I1
s(I2703
I2704
tp172
I1
s(I4027
I933
tp173
I1
s(I3143
I3144
tp174
I1
s(I3927
I4121
tp175
I1
s(I2777
I2778
tp176
I1
s(I3210
I3211
tp177
I1
s(I3793
I1916
tp178
I1
s(I3216
I3217
tp179
I1
s(I3077
I3078
tp180
I1
s(I1911
I3389
tp181
I1
s(I3618
I2059
tp182
I1
s(I3464
I3465
tp183
I1
s(I1940
I4028
tp184
I1
s(I2856
I852
tp185
I1
s(I3760
I3761
tp186
I1
s(I3752
I3753
tp187
I1
s(I3447
I3448
tp188
I1
s(I2844
I2845
tp189
I1
s(I3372
I3373
tp190
I1
s(I3647
I3648
tp191
I1
s(I3572
I565
tp192
I1
s(I3834
I3835
tp193
I1
s(I3201
I3202
tp194
I1
s(I3032
I3033
tp195
I1
s(I1153
I3043
tp196
I1
s(I1705
I3713
tp197
I1
s(I3178
I337
tp198
I1
s(I3692
I3693
tp199
I1
s(I3999
I4000
tp200
I1
s(I1103
I1315
tp201
I1
s(I3033
I3034
tp202
I1
s(I2853
I2854
tp203
I1
s(I4071
I4072
tp204
I1
s(I1103
I698
tp205
I1
s(I1571
I1572
tp206
I1
s(I356
I4125
tp207
I1
s(I3652
I2634
tp208
I1
s(I2181
I3370
tp209
I1
s(I3252
I1974
tp210
I1
s(I2919
I922
tp211
I1
s(I3933
I3934
tp212
I1
s(I3567
I3568
tp213
I1
s(I3465
I3466
tp214
I1
s(I2068
I3850
tp215
I1
s(I3339
I3340
tp216
I1
s(I2124
I2765
tp217
I1
s(I3406
I3407
tp218
I1
s(I3324
I3325
tp219
I1
s(I2886
I2887
tp220
I1
s(I304
I1907
tp221
I1
s(I2647
I2648
tp222
I1
s(I3872
I3873
tp223
I1
s(I2641
I2642
tp224
I1
s(I404
I2781
tp225
I1
s(I3226
I3227
tp226
I1
s(I3093
I3094
tp227
I1
s(I3515
I3516
tp228
I1
s(I2897
I2898
tp229
I1
s(I3005
I1429
tp230
I1
s(I3954
I3955
tp231
I1
s(I2648
I2649
tp232
I1
s(I3220
I3221
tp233
I1
s(I3745
I3746
tp234
I1
s(I315
I3749
tp235
I1
s(I2802
I2803
tp236
I1
s(I3451
I3452
tp237
I1
s(I1775
I2641
tp238
I1
s(I2341
I2559
tp239
I1
s(I2988
I2989
tp240
I1
s(I2724
I2725
tp241
I1
s(I269
I3449
tp242
I1
s(I3182
I3183
tp243
I1
s(I3439
I103
tp244
I1
s(I3163
I1960
tp245
I1
s(I3199
I3200
tp246
I1
s(I2798
I2799
tp247
I1
s(I3441
I3442
tp248
I1
s(I3673
I3674
tp249
I1
s(I4090
I4091
tp250
I1
s(I3008
I3009
tp251
I1
s(I2896
I2897
tp252
I1
s(I3124
I3125
tp253
I1
s(I2931
I2932
tp254
I1
s(I1452
I1574
tp255
I1
s(I4123
I4124
tp256
I1
s(I1665
I82
tp257
I1
s(I3556
I3557
tp258
I1
s(I2662
I3875
tp259
I1
s(I3875
I3876
tp260
I1
s(I4129
I4130
tp261
I1
s(I193
I3436
tp262
I1
s(I3109
I3110
tp263
I1
s(I3245
I3246
tp264
I1
s(I3433
I3434
tp265
I1
s(I3381
I676
tp266
I1
s(I2674
I2675
tp267
I1
s(I3607
I431
tp268
I1
s(I3916
I3917
tp269
I1
s(I1518
I2651
tp270
I1
s(I3075
I3076
tp271
I1
s(I3383
I3384
tp272
I1
s(I3824
I3825
tp273
I1
s(I4013
I4014
tp274
I1
s(I3675
I3676
tp275
I1
s(I3702
I3703
tp276
I1
s(I3686
I3687
tp277
I1
s(I3678
I3679
tp278
I1
s(I3698
I3699
tp279
I1
s(I3765
I3766
tp280
I1
s(I281
I677
tp281
I1
s(I4139
I4140
tp282
I1
s(I2990
I2991
tp283
I1
s(I2541
I3711
tp284
I1
s(I3459
I3460
tp285
I1
s(I1811
I3925
tp286
I1
s(I2103
I3696
tp287
I1
s(I384
I3161
tp288
I1
s(I3988
I1376
tp289
I1
s(I3848
I3849
tp290
I1
s(I3981
I3982
tp291
I1
s(I3483
I3484
tp292
I1
s(I2771
I2772
tp293
I1
s(I3321
I3145
tp294
I1
s(I2848
I2849
tp295
I1
s(I3137
I3138
tp296
I1
s(I133
I3673
tp297
I1
s(I3308
I3309
tp298
I1
s(I2655
I2656
tp299
I1
s(I2748
I2749
tp300
I1
s(I3849
I676
tp301
I1
s(I3076
I3077
tp302
I1
s(I3950
I404
tp303
I1
s(I3291
I3292
tp304
I1
s(I3300
I3301
tp305
I1
s(I3552
I3553
tp306
I1
s(I3138
I3139
tp307
I1
s(I3256
I3257
tp308
I1
s(I2625
I565
tp309
I1
s(I3285
I950
tp310
I1
s(I2776
I2341
tp311
I1
s(I3528
I3529
tp312
I1
s(I3735
I3736
tp313
I1
s(I4138
I4139
tp314
I1
s(I3847
I3848
tp315
I1
s(I4041
I4042
tp316
I1
s(I3188
I3189
tp317
I1
s(I3173
I3174
tp318
I1
s(I3169
I3170
tp319
I1
s(I4050
I4051
tp320
I1
s(I404
I3951
tp321
I1
s(I2672
I376
tp322
I1
s(I3031
I3032
tp323
I1
s(I3710
I2541
tp324
I1
s(I3797
I3798
tp325
I1
s(I2953
I2954
tp326
I1
s(I3060
I3061
tp327
I1
s(I2650
I1518
tp328
I1
s(I3162
I3163
tp329
I1
s(I2868
I2869
tp330
I1
s(I3395
I3396
tp331
I1
s(I3910
I3911
tp332
I1
s(I3403
I3404
tp333
I1
s(I3894
I3895
tp334
I1
s(I3491
I2517
tp335
I1
s(I3096
I3097
tp336
I1
s(I2883
I2884
tp337
I1
s(I810
I2996
tp338
I1
s(I2228
I72
tp339
I1
s(I3250
I3251
tp340
I1
s(I3771
I3772
tp341
I1
s(I2800
I2801
tp342
I1
s(I3739
I1659
tp343
I1
s(I3804
I3805
tp344
I1
s(I2719
I2720
tp345
I1
s(I3820
I3821
tp346
I1
s(I3027
I3028
tp347
I1
s(I3234
I3235
tp348
I1
s(I3127
I3128
tp349
I1
s(I933
I1940
tp350
I1
s(I4066
I4067
tp351
I1
s(I3349
I3350
tp352
I1
s(I3654
I3655
tp353
I1
s(I2892
I2893
tp354
I1
s(I354
I79
tp355
I1
s(I3615
I3616
tp356
I1
s(I3839
I3840
tp357
I1
s(I3925
I3926
tp358
I1
s(I3715
I1221
tp359
I1
s(I3600
I3601
tp360
I1
s(I3993
I3994
tp361
I1
s(I3677
I3678
tp362
I1
s(I2948
I2949
tp363
I1
s(I2900
I2901
tp364
I1
s(I4016
I4017
tp365
I1
s(I3991
I3992
tp366
I1
s(I4126
I3439
tp367
I1
s(I2969
I2970
tp368
I1
s(I3397
I3398
tp369
I1
s(I3724
I3725
tp370
I1
s(I2805
I2806
tp371
I1
s(I1389
I3091
tp372
I1
s(I3392
I1571
tp373
I1
s(I3028
I304
tp374
I1
s(I4007
I4008
tp375
I1
s(I3864
I3865
tp376
I1
s(I3989
I3990
tp377
I1
s(I3376
I3377
tp378
I1
s(I2981
I2982
tp379
I1
s(I2695
I2696
tp380
I1
s(I3596
I3597
tp381
I1
s(I2059
I3619
tp382
I1
s(I1974
I3059
tp383
I1
s(I3586
I3587
tp384
I1
s(I3453
I3454
tp385
I1
s(I2970
I2971
tp386
I1
s(I3338
I3339
tp387
I1
s(I3191
I3192
tp388
I1
s(I3716
I3717
tp389
I1
s(I2977
I2978
tp390
I1
s(I2839
I2840
tp391
I1
s(I2884
I2490
tp392
I1
s(I3637
I3638
tp393
I1
s(I2664
I1221
tp394
I1
s(I3269
I3270
tp395
I1
s(I3295
I3296
tp396
I1
s(I3853
I3854
tp397
I1
s(I3710
I3914
tp398
I1
s(I3885
I3886
tp399
I1
s(I193
I2972
tp400
I1
s(I1221
I3889
tp401
I1
s(I3523
I3524
tp402
I1
s(I2704
I4076
tp403
I1
s(I3183
I3184
tp404
I1
s(I3830
I3831
tp405
I1
s(I2759
I2760
tp406
I1
s(I2998
I2999
tp407
I1
s(I3151
I3152
tp408
I1
s(I3062
I3063
tp409
I1
s(I4113
I4114
tp410
I1
s(I3499
I3500
tp411
I1
s(I2941
I2942
tp412
I1
s(I3357
I2913
tp413
I1
s(I2481
I739
tp414
I1
s(I1650
I4105
tp415
I1
s(I3507
I3508
tp416
I1
s(I2293
I2682
tp417
I1
s(I3354
I3355
tp418
I1
s(I3585
I3586
tp419
I1
s(I3961
I3962
tp420
I1
s(I4026
I4027
tp421
I1
s(I3930
I3931
tp422
I1
s(I2908
I2909
tp423
I1
s(I2676
I2677
tp424
I1
s(I3414
I890
tp425
I1
s(I4024
I4025
tp426
I1
s(I4005
I4006
tp427
I1
s(I3301
I3302
tp428
I1
s(I3979
I1985
tp429
I1
s(I3055
I3056
tp430
I1
s(I3202
I2481
tp431
I1
s(I3819
I3820
tp432
I1
s(I2431
I3430
tp433
I1
s(I3803
I3804
tp434
I1
s(I4120
I3927
tp435
I1
s(I2786
I2787
tp436
I1
s(I3268
I3269
tp437
I1
s(I3601
I3602
tp438
I1
s(I2731
I2732
tp439
I1
s(I3700
I481
tp440
I1
s(I104
I4127
tp441
I1
s(I3825
I3826
tp442
I1
s(I3593
I3594
tp443
I1
s(I1193
I891
tp444
I1
s(I3134
I3135
tp445
I1
s(I2968
I2969
tp446
I1
s(I3912
I3913
tp447
I1
s(I2960
I2961
tp448
I1
s(I3655
I3656
tp449
I1
s(I3963
I3964
tp450
I1
s(I3539
I3540
tp451
I1
s(I2901
I2902
tp452
I1
s(I852
I1645
tp453
I1
s(I3971
I3972
tp454
I1
s(I3610
I3611
tp455
I1
s(I3705
I3706
tp456
I1
s(I3689
I3690
tp457
I1
s(I3835
I3836
tp458
I1
s(I3083
I3084
tp459
I1
s(I3001
I3002
tp460
I1
s(I4076
I4077
tp461
I1
s(I3606
I3607
tp462
I1
s(I3524
I3525
tp463
I1
s(I2772
I2773
tp464
I1
s(I3070
I3071
tp465
I1
s(I3237
I156
tp466
I1
s(I3067
I3068
tp467
I1
s(I2862
I86
tp468
I1
s(I2871
I2872
tp469
I1
s(I3018
I3019
tp470
I1
s(I3375
I3376
tp471
I1
s(I3684
I3685
tp472
I1
s(I2649
I243
tp473
I1
s(I826
I354
tp474
I1
s(I4040
I4041
tp475
I1
s(I3185
I3186
tp476
I1
s(I3346
I3347
tp477
I1
s(I3157
I267
tp478
I1
s(I3274
I3275
tp479
I1
s(I3903
I565
tp480
I1
s(I4063
I4064
tp481
I1
s(I739
I3203
tp482
I1
s(I3697
I3698
tp483
I1
s(I2822
I2823
tp484
I1
s(I2829
I2830
tp485
I1
s(I3284
I3285
tp486
I1
s(I3959
I3960
tp487
I1
s(I3482
I3483
tp488
I1
s(I1938
I4090
tp489
I1
s(I3609
I3610
tp490
I1
s(I3517
I3518
tp491
I1
s(I2861
I882
tp492
I1
s(I2782
I3440
tp493
I1
s(I3614
I3615
tp494
I1
s(I3152
I3153
tp495
I1
s(I3320
I267
tp496
I1
s(I3099
I3100
tp497
I1
s(I3520
I833
tp498
I1
s(I3750
I553
tp499
I1
s(I4028
I4029
tp500
I1
s(I3286
I3287
tp501
I1
s(I3580
I3581
tp502
I1
s(I3479
I3480
tp503
I1
s(I3980
I184
tp504
I1
s(I3497
I3498
tp505
I1
s(I2702
I2703
tp506
I1
s(I3041
I3042
tp507
I1
s(I2714
I810
tp508
I1
s(I3051
I3052
tp509
I1
s(I3919
I3920
tp510
I1
s(I4064
I4065
tp511
I1
s(I2930
I2931
tp512
I1
s(I3272
I3273
tp513
I1
s(I3106
I3334
tp514
I1
s(I4062
I1103
tp515
I1
s(I4032
I4033
tp516
I1
s(I3437
I3438
tp517
I1
s(I2787
I2788
tp518
I1
s(I1938
I3016
tp519
I1
s(I3230
I1026
tp520
I1
s(I1429
I3006
tp521
I1
s(I3829
I3830
tp522
I1
s(I3956
I3957
tp523
I1
s(I80
I3898
tp524
I1
s(I3940
I3941
tp525
I1
s(I2910
I2911
tp526
I1
s(I2826
I2827
tp527
I1
s(I3852
I3853
tp528
I1
s(I2831
I2832
tp529
I1
s(I1109
I2861
tp530
I1
s(I3641
I609
tp531
I1
s(I3726
I3727
tp532
I1
s(I3734
I3735
tp533
I1
s(I2597
I2598
tp534
I1
s(I2799
I2800
tp535
I1
s(I2634
I1103
tp536
I1
s(I4006
I4007
tp537
I1
s(I3998
I3999
tp538
I1
s(I565
I3573
tp539
I1
s(I3265
I3266
tp540
I1
s(I3370
I3371
tp541
I1
s(I2671
I2672
tp542
I2
s(I3642
I3643
tp543
I1
s(I3796
I3797
tp544
I1
s(I698
I2650
tp545
I1
s(I3340
I3341
tp546
I1
s(I2943
I2944
tp547
I1
s(I3388
I1911
tp548
I1
s(I73
I4003
tp549
I1
s(I2877
I2878
tp550
I1
s(I3742
I176
tp551
I1
s(I3501
I3502
tp552
I1
s(I3547
I3548
tp553
I1
s(I3229
I3230
tp554
I1
s(I3663
I76
tp555
I1
s(I3851
I3852
tp556
I1
s(I2821
I2822
tp557
I1
s(I3758
I3292
tp558
I1
s(I3438
I3439
tp559
I1
s(I2781
I1974
tp560
I1
s(I3378
I3379
tp561
I1
s(I4142
I4143
tp562
I1
s(I3532
I3533
tp563
I1
s(I3706
I3707
tp564
I1
s(I3923
I3924
tp565
I1
s(I3401
I3402
tp566
I1
s(I2726
I2727
tp567
I1
s(I3533
I3534
tp568
I1
s(I3207
I3208
tp569
I1
s(I3833
I3834
tp570
I1
s(I3756
I3757
tp571
I1
s(I2699
I2700
tp572
I1
s(I3906
I3907
tp573
I1
s(I2345
I3123
tp574
I1
s(I3131
I3132
tp575
I1
s(I3277
I3278
tp576
I1
s(I3995
I3996
tp577
I1
s(I3542
I3543
tp578
I1
s(I2138
I2714
tp579
I1
s(I2788
I2789
tp580
I1
s(I2764
I2124
tp581
I1
s(I3244
I3245
tp582
I1
s(I2734
I2735
tp583
I1
s(I3945
I3946
tp584
I1
s(I3574
I3575
tp585
I1
s(I2603
I2604
tp586
I1
s(I3054
I3055
tp587
I1
s(I3040
I3041
tp588
I1
s(I3057
I3058
tp589
I1
s(I677
I1801
tp590
I1
s(I3696
I3045
tp591
I1
s(I2758
I2759
tp592
I1
s(I2750
I2751
tp593
I1
s(I852
I3382
tp594
I1
s(I1315
I1974
tp595
I1
s(I3411
I3412
tp596
I1
s(I3939
I3940
tp597
I1
s(I3192
I3193
tp598
I1
s(I698
I2955
tp599
I1
s(I3904
I3905
tp600
I1
s(I3088
I3089
tp601
I1
s(I2828
I2829
tp602
I1
s(I2991
I2992
tp603
I1
s(I3098
I3099
tp604
I1
s(I547
I1048
tp605
I1
s(I3179
I3180
tp606
I1
s(I2599
I2600
tp607
I1
s(I3964
I3965
tp608
I1
s(I243
I698
tp609
I1
s(I1571
I3393
tp610
I1
s(I3927
I3928
tp611
I1
s(I170
I2393
tp612
I1
s(I3305
I3306
tp613
I1
s(I2909
I1580
tp614
I1
s(I3293
I3351
tp615
I1
s(I3953
I3242
tp616
I1
s(I2982
I2983
tp617
I1
s(I2760
I2761
tp618
I1
s(I475
I3657
tp619
I1
s(I2807
I2808
tp620
I1
s(I3968
I3969
tp621
I1
s(I3526
I3527
tp622
I1
s(I3165
I3166
tp623
I1
s(I3573
I3574
tp624
I1
s(I3227
I3228
tp625
I1
s(I3695
I2430
tp626
I1
s(I3740
I841
tp627
I1
s(I880
I3415
tp628
I1
s(I3669
I3670
tp629
I1
s(I3969
I3970
tp630
I1
s(I3861
I3862
tp631
I1
s(I3288
I640
tp632
I1
s(I2742
I2743
tp633
I1
s(I3168
I197
tp634
I1
s(I3975
I3976
tp635
I1
s(I3231
I3487
tp636
I1
s(I3452
I3453
tp637
I1
s(I520
I4110
tp638
I1
s(I3436
I3437
tp639
I1
s(I3978
I3979
tp640
I1
s(I494
I3774
tp641
I1
s(I2949
I2950
tp642
I1
s(I3976
I3977
tp643
I1
s(I3761
I3762
tp644
I1
s(I266
I267
tp645
I1
s(I3103
I3104
tp646
I1
s(I2945
I2946
tp647
I1
s(I3065
I3066
tp648
I1
s(I3258
I3259
tp649
I1
s(I2924
I2925
tp650
I1
s(I2872
I2873
tp651
I1
s(I2845
I2846
tp652
I1
s(I2612
I2613
tp653
I1
s(I3222
I3223
tp654
I1
s(I3448
I269
tp655
I1
s(I4072
I4073
tp656
I1
s(I2791
I2792
tp657
I1
s(I4056
I4057
tp658
I1
s(I4048
I4049
tp659
I1
s(I3059
I3060
tp660
I1
s(I3898
I3899
tp661
I1
s(I3890
I3891
tp662
I1
s(I86
I2776
tp663
I1
s(I3485
I3486
tp664
I1
s(I361
I3919
tp665
I1
s(I3260
I3261
tp666
I1
s(I1091
I3124
tp667
I1
s(I3500
I3501
tp668
I1
s(I1960
I3164
tp669
I1
s(I4053
I3714
tp670
I1
s(I3867
I3868
tp671
I1
s(I3977
I3978
tp672
I1
s(I2894
I2895
tp673
I1
s(I1360
I3759
tp674
I1
s(I354
I66
tp675
I1
s(I1574
I3101
tp676
I1
s(I2895
I2896
tp677
I1
s(I3345
I2768
tp678
I1
s(I2967
I2968
tp679
I1
s(I3856
I425
tp680
I1
s(I3718
I3719
tp681
I1
s(I2752
I2753
tp682
I1
s(I2729
I2730
tp683
I1
s(I3994
I3995
tp684
I1
s(I3224
I3225
tp685
I1
s(I3509
I3510
tp686
I1
s(I3620
I1157
tp687
I1
s(I3387
I3388
tp688
I1
s(I3546
I1274
tp689
I1
s(I2926
I2927
tp690
I1
s(I3992
I3993
tp691
I1
s(I2956
I2957
tp692
I1
s(I2642
I2643
tp693
I1
s(I3650
I3651
tp694
I1
s(I4110
I4111
tp695
I1
s(I2768
I760
tp696
I1
s(I3089
I1486
tp697
I1
s(I3373
I1537
tp698
I1
s(I2762
I2763
tp699
I1
s(I3880
I482
tp700
I1
s(I4069
I4070
tp701
I1
s(I3236
I3237
tp702
I1
s(I2677
I2678
tp703
I1
s(I3400
I3401
tp704
I1
s(I4001
I4002
tp705
I1
s(I3913
I3710
tp706
I1
s(I83
I2595
tp707
I1
s(I3914
I3915
tp708
I1
s(I3967
I3968
tp709
I1
s(I4000
I4001
tp710
I1
s(I3801
I3802
tp711
I1
s(I3462
I3463
tp712
I1
s(I2632
I2633
tp713
I1
s(I3822
I3823
tp714
I1
s(I2732
I2733
tp715
I1
s(I3895
I3896
tp716
I1
s(I3422
I3423
tp717
I1
s(I2813
I2814
tp718
I1
s(I4014
I4015
tp719
I1
s(I2077
I3331
tp720
I1
s(I560
I3065
tp721
I1
s(I2369
I2877
tp722
I1
s(I2958
I2959
tp723
I1
s(I3619
I3620
tp724
I1
s(I3985
I3986
tp725
I1
s(I4080
I4081
tp726
I1
s(I337
I677
tp727
I1
s(I3869
I3870
tp728
I1
s(I3242
I2861
tp729
I1
s(I404
I3457
tp730
I1
s(I3753
I3754
tp731
I1
s(I3086
I3087
tp732
I1
s(I2913
I3358
tp733
I1
s(I2986
I2987
tp734
I1
s(I3568
I3569
tp735
I1
s(I1221
I2665
tp736
I1
s(I3297
I3298
tp737
I1
s(I868
I2824
tp738
I1
s(I3189
I3190
tp739
I1
s(I3311
I3312
tp740
I1
s(I354
I84
tp741
I1
s(I2933
I2934
tp742
I1
s(I4015
I4016
tp743
I1
s(I3870
I3871
tp744
I1
s(I3048
I3049
tp745
I1
s(I3783
I3784
tp746
I1
s(I2905
I2906
tp747
I1
s(I3478
I3479
tp748
I1
s(I159
I1255
tp749
I1
s(I3781
I3782
tp750
I1
s(I3293
I3145
tp751
I1
s(I3398
I3399
tp752
I1
s(I193
I3544
tp753
I1
s(I3333
I3106
tp754
I1
s(I3560
I3561
tp755
I1
s(I3896
I3897
tp756
I1
s(I3123
I1091
tp757
I1
s(I1572
I3874
tp758
I1
s(I3949
I3950
tp759
I1
s(I3362
I3363
tp760
I1
s(I3962
I3963
tp761
I1
s(I841
I2938
tp762
I1
s(I1206
I3106
tp763
I1
s(I2834
I3011
tp764
I1
s(I3477
I3478
tp765
I1
s(I3106
I3107
tp766
I1
s(I2690
I2691
tp767
I1
s(I3071
I3072
tp768
I1
s(I4143
I1665
tp769
I1
s(I3900
I3901
tp770
I1
s(I3628
I3629
tp771
I1
s(I3831
I3832
tp772
I1
s(I4031
I4032
tp773
I1
s(I3815
I3816
tp774
I1
s(I4067
I4068
tp775
I1
s(I2801
I2802
tp776
I1
s(I3873
I1571
tp777
I1
s(I3518
I3519
tp778
I1
s(I3149
I3299
tp779
I1
s(I3091
I3092
tp780
I1
s(I3850
I3851
tp781
I1
s(I2633
I2634
tp782
I1
s(I85
I2687
tp783
I1
s(I2559
I2777
tp784
I1
s(I71
I384
tp785
I1
s(I3799
I3800
tp786
I1
s(I3570
I3571
tp787
I1
s(I3081
I3082
tp788
I1
s(I519
I565
tp789
I1
s(I3494
I3495
tp790
I1
s(I2944
I2945
tp791
I1
s(I2721
I2722
tp792
I1
s(I3661
I3662
tp793
I1
s(I3203
I3204
tp794
I1
s(I3466
I3467
tp795
I1
s(I2326
I4048
tp796
I1
s(I640
I3289
tp797
I1
s(I3800
I3801
tp798
I1
s(I3855
I3856
tp799
I1
s(I481
I482
tp800
I1
s(I3660
I3661
tp801
I1
s(I4127
I4128
tp802
I1
s(I3522
I3523
tp803
I1
s(I3254
I3255
tp804
I1
s(I4093
I4094
tp805
I1
s(I4004
I4005
tp806
I1
s(I3132
I3159
tp807
I1
s(I3646
I3647
tp808
I1
s(I2660
I2661
tp809
I1
s(I3026
I3027
tp810
I1
s(I1910
I2652
tp811
I1
s(I3562
I3563
tp812
I1
s(I3142
I3143
tp813
I1
s(I3167
I3168
tp814
I1
s(I3072
I354
tp815
I1
s(I3126
I3127
tp816
I1
s(I3808
I3809
tp817
I1
s(I1916
I3794
tp818
I1
s(I3180
I3181
tp819
I1
s(I3164
I3165
tp820
I1
s(I3223
I3224
tp821
I1
s(I70
I3073
tp822
I1
s(I285
I2719
tp823
I1
s(I505
I519
tp824
I1
s(I2936
I2937
tp825
I1
s(I3091
I3631
tp826
I1
s(I3475
I3476
tp827
I1
s(I1801
I3864
tp828
I1
s(I3591
I3592
tp829
I1
s(I3759
I3760
tp830
I1
s(I2651
I1910
tp831
I1
s(I3632
I3633
tp832
I1
s(I3874
I2662
tp833
I1
s(I677
I3179
tp834
I1
s(I3749
I3750
tp835
I1
s(I3871
I3872
tp836
I1
s(I4046
I4047
tp837
I1
s(I2918
I2919
tp838
I1
s(I3990
I3991
tp839
I1
s(I2814
I2815
tp840
I1
s(I1531
I3653
tp841
I1
s(I3529
I3530
tp842
I1
s(I2790
I2791
tp843
I1
s(I267
I3321
tp844
I1
s(I4011
I4012
tp845
I1
s(I3792
I3793
tp846
I1
s(I3440
I3441
tp847
I1
s(I3115
I2471
tp848
I1
s(I2789
I2790
tp849
I1
s(I3626
I3627
tp850
I1
s(I3053
I3054
tp851
I1
s(I2607
I2608
tp852
I1
s(I2753
I2754
tp853
I1
s(I2987
I2988
tp854
I1
s(I2957
I2958
tp855
I1
s(I3565
I3292
tp856
I1
s(I3664
I3665
tp857
I1
s(I3412
I2773
tp858
I1
s(I2887
I2888
tp859
I1
s(I2766
I2767
tp860
I1
s(I2624
I2625
tp861
I1
s(I2993
I2994
tp862
I1
s(I3275
I104
tp863
I1
s(I3045
I3697
tp864
I1
s(I4116
I404
tp865
I1
s(I3569
I3570
tp866
I1
s(I2920
I2921
tp867
I1
s(I3082
I3083
tp868
I1
s(I3543
I3040
tp869
I1
s(I66
I2863
tp870
I1
s(I3592
I3593
tp871
I1
s(I3419
I3420
tp872
I1
s(I3359
I3360
tp873
I1
s(I3970
I1764
tp874
I1
s(I1572
I3005
tp875
I1
s(I4025
I4026
tp876
I1
s(I1000
I2979
tp877
I1
s(I3658
I3659
tp878
I1
s(I4089
I1938
tp879
I1
s(I3417
I3418
tp880
I1
s(I2692
I2693
tp881
I1
s(I4068
I3149
tp882
I1
s(I2974
I2975
tp883
I1
s(I2741
I2742
tp884
I1
s(I2659
I2660
tp885
I1
s(I2605
I2606
tp886
I1
s(I3888
I1221
tp887
I1
s(I3281
I3282
tp888
I1
s(I3356
I882
tp889
I1
s(I3644
I3645
tp890
I1
s(I2602
I2603
tp891
I1
s(I3337
I640
tp892
I1
s(I3166
I3167
tp893
I1
s(I2950
I2951
tp894
I1
s(I3315
I3316
tp895
I1
s(I2613
I2614
tp896
I1
s(I3442
I3443
tp897
I1
s(I3714
I4054
tp898
I1
s(I2638
I2639
tp899
I1
s(I2763
I2764
tp900
I1
s(I3891
I3892
tp901
I1
s(I3921
I3922
tp902
I1
s(I3049
I3050
tp903
I1
s(I3279
I1974
tp904
I1
s(I3302
I3303
tp905
I1
s(I2837
I2838
tp906
I1
s(I3579
I3580
tp907
I1
s(I3153
I3154
tp908
I1
s(I882
I3357
tp909
I1
s(I3416
I3417
tp910
I1
s(I3597
I3598
tp911
I1
s(I3248
I3249
tp912
I1
s(I3454
I3455
tp913
I1
s(I3656
I475
tp914
I1
s(I3195
I3196
tp915
I1
s(I4085
I4086
tp916
I1
s(I2646
I2647
tp917
I1
s(I3144
I3145
tp918
I1
s(I2916
I2917
tp919
I1
s(I3911
I3912
tp920
I1
s(I2847
I2848
tp921
I1
s(I3496
I3497
tp922
I1
s(I2984
I2985
tp923
I1
s(I3806
I3807
tp924
I1
s(I2736
I2737
tp925
I1
s(I2728
I2729
tp926
I1
s(I3158
I3132
tp927
I1
s(I3059
I3265
tp928
I1
s(I3807
I3808
tp929
I1
s(I2782
I2783
tp930
I1
s(I2810
I2811
tp931
I1
s(I2912
I2913
tp932
I1
s(I3862
I3863
tp933
I1
s(I553
I852
tp934
I1
s(I3508
I3509
tp935
I1
s(I4019
I4020
tp936
I1
s(I3036
I3037
tp937
I1
s(I2915
I2916
tp938
I1
s(I3353
I3354
tp939
I1
s(I3965
I3966
tp940
I1
s(I2661
I2662
tp941
I1
s(I1123
I3709
tp942
I1
s(I3514
I3515
tp943
I1
s(I4003
I4004
tp944
I1
s(I3498
I3499
tp945
I1
s(I3729
I3730
tp946
I1
s(I4029
I4030
tp947
I1
s(I4092
I4093
tp948
I1
s(I2940
I2941
tp949
I1
s(I2716
I456
tp950
I1
s(I3177
I3178
tp951
I1
s(I3832
I78
tp952
I1
s(I3826
I3827
tp953
I1
s(I2615
I2616
tp954
I1
s(I4112
I4113
tp955
I1
s(I4136
I4137
tp956
I1
s(I3432
I3433
tp957
I1
s(I810
I1206
tp958
I1
s(I3534
I3535
tp959
I1
s(I3878
I3879
tp960
I1
s(I3531
I3532
tp961
I1
s(I3253
I3254
tp962
I1
s(I3943
I3944
tp963
I1
s(I3242
I3243
tp964
I1
s(I3061
I3062
tp965
I1
s(I3717
I3718
tp966
I1
s(I2955
I2324
tp967
I1
s(I3763
I3764
tp968
I1
s(I3550
I3551
tp969
I1
s(I3651
I3652
tp970
I1
s(I2913
I2914
tp971
I1
s(I3767
I3768
tp972
I1
s(I3194
I3195
tp973
I1
s(I1376
I3989
tp974
I1
s(I3111
I3112
tp975
I1
s(I2629
I2630
tp976
I1
s(I3348
I3349
tp977
I1
s(I3405
I3406
tp978
I1
s(I2823
I868
tp979
I1
s(I3599
I3600
tp980
I1
s(I3161
I3162
tp981
I1
s(I73
I3326
tp982
I1
s(I376
I2711
tp983
I1
s(I3587
I3588
tp984
I1
s(I2276
I3263
tp985
I1
s(I4002
I73
tp986
I1
s(I2860
I1109
tp987
I1
s(I3208
I3209
tp988
I1
s(I3270
I3271
tp989
I1
s(I1985
I3980
tp990
I1
s(I3052
I3053
tp991
I1
s(I3039
I3040
tp992
I1
s(I3113
I3114
tp993
I1
s(I3488
I3489
tp994
I1
s(I676
I852
tp995
I1
s(I3299
I3300
tp996
I1
s(I833
I3521
tp997
I1
s(I3947
I3948
tp998
I1
s(I3920
I3921
tp999
I1
s(I1282
I1680
tp1000
I1
s(I3982
I80
tp1001
I1
s(I878
I4134
tp1002
I1
s(I3273
I3274
tp1003
I1
s(I2927
I2928
tp1004
I1
s(I3941
I3942
tp1005
I1
s(I2718
I285
tp1006
I1
s(I3206
I3207
tp1007
I1
s(I2077
I2831
tp1008
I1
s(I3667
I3668
tp1009
I1
s(I3957
I3958
tp1010
I1
s(I3657
I3658
tp1011
I1
s(I2838
I2839
tp1012
I1
s(I2068
I2809
tp1013
I1
s(I3021
I3022
tp1014
I1
s(I2755
I2756
tp1015
I1
s(I2654
I2655
tp1016
I1
s(I2682
I2683
tp1017
I1
s(I3385
I3386
tp1018
I1
s(I4052
I4053
tp1019
I1
s(I3145
I3294
tp1020
I1
s(I1026
I104
tp1021
I2
s(I3584
I3585
tp1022
I1
s(I3955
I3956
tp1023
I1
s(I3899
I3900
tp1024
I1
s(I2751
I2431
tp1025
I1
s(I2834
I2835
tp1026
I1
s(I3882
I3883
tp1027
I1
s(I3456
I404
tp1028
I1
s(I3868
I3869
tp1029
I1
s(I2954
I575
tp1030
I1
s(I3298
I3299
tp1031
I1
s(I4008
I269
tp1032
I1
s(I3680
I3681
tp1033
I1
s(I2698
I2699
tp1034
I1
s(I184
I4117
tp1035
I1
s(I3100
I1574
tp1036
I1
s(I3377
I3378
tp1037
I1
s(I4121
I4122
tp1038
I1
s(I3396
I3397
tp1039
I1
s(I3736
I3737
tp1040
I1
s(I565
I3904
tp1041
I1
s(I3380
I3381
tp1042
I1
s(I3147
I3148
tp1043
I1
s(I4044
I4045
tp1044
I1
s(I3704
I3705
tp1045
I1
s(I4101
I4102
tp1046
I1
s(I2517
I3492
tp1047
I1
s(I1389
I4084
tp1048
I1
s(I3367
I3368
tp1049
I1
s(I2393
I1975
tp1050
I1
s(I4141
I4142
tp1051
I1
s(I3997
I3998
tp1052
I1
s(I3881
I3882
tp1053
I1
s(I3050
I3051
tp1054
I1
s(I3743
I77
tp1055
I1
s(I3714
I3715
tp1056
I1
s(I1435
I4043
tp1057
I1
s(I2996
I2997
tp1058
I1
s(I3674
I3675
tp1059
I1
s(I3073
I384
tp1060
I1
s(I3823
I613
tp1061
I1
s(I4087
I4088
tp1062
I1
s(I2637
I2638
tp1063
I1
s(I2705
I2706
tp1064
I1
s(I3335
I3336
tp1065
I1
s(I4039
I4040
tp1066
I1
s(I3821
I3822
tp1067
I1
s(I2723
I2724
tp1068
I1
s(I2773
I2774
tp1069
I1
s(I2780
I404
tp1070
I1
s(I3844
I3845
tp1071
I1
s(I3267
I3268
tp1072
I1
s(I384
I3074
tp1073
I1
s(I3958
I3959
tp1074
I1
s(I3259
I3260
tp1075
I1
s(I104
I3276
tp1076
I1
s(I3589
I3590
tp1077
I1
s(I1625
I2744
tp1078
I1
s(I2796
I2797
tp1079
I1
s(I1894
I3710
tp1080
I1
s(I4137
I4138
tp1081
I1
s(I3110
I3111
tp1082
I1
s(I3042
I1282
tp1083
I1
s(I3215
I3216
tp1084
I1
s(I2623
I2624
tp1085
I1
s(I4133
I878
tp1086
I1
s(I3090
I3091
tp1087
I1
s(I3608
I3609
tp1088
I1
s(I2324
I2956
tp1089
I1
s(I3813
I3814
tp1090
I1
s(I3809
I3810
tp1091
I1
s(I2708
I2709
tp1092
I1
s(I3487
I3488
tp1093
I1
s(I3777
I3778
tp1094
I1
s(I4060
I4061
tp1095
I1
s(I922
I354
tp1096
I1
s(I3545
I3546
tp1097
I1
s(I3101
I3102
tp1098
I1
s(I2700
I2701
tp1099
I1
s(I2874
I170
tp1100
I1
s(I3582
I3583
tp1101
I1
s(I3931
I3932
tp1102
I1
s(I3603
I3604
tp1103
I1
s(I2832
I2833
tp1104
I1
s(I2689
I2690
tp1105
I1
s(I3140
I3141
tp1106
I1
s(I3843
I3844
tp1107
I1
s(I3399
I3400
tp1108
I1
s(I2706
I2707
tp1109
I1
s(I2675
I2676
tp1110
I1
s(I3721
I3722
tp1111
I1
s(I3266
I3267
tp1112
I1
s(I3748
I315
tp1113
I1
s(I3671
I3672
tp1114
I1
s(I3754
I3755
tp1115
I1
s(I81
I3983
tp1116
I1
s(I3537
I3538
tp1117
I1
s(I2985
I2986
tp1118
I1
s(I3738
I3739
tp1119
I1
s(I2667
I2668
tp1120
I1
s(I3731
I1373
tp1121
I1
s(I3605
I3606
tp1122
I1
s(I3757
I3758
tp1123
I1
s(I2846
I2847
tp1124
I1
s(I3257
I3258
tp1125
I1
s(I2668
I2669
tp1126
I1
s(I609
I3642
tp1127
I1
s(I4018
I4019
tp1128
I1
s(I3854
I3855
tp1129
I1
s(I3310
I3311
tp1130
I1
s(I3629
I3630
tp1131
I1
s(I3330
I2077
tp1132
I1
s(I3639
I3640
tp1133
I1
s(I3261
I3262
tp1134
I1
s(I3857
I3858
tp1135
I1
s(I4083
I1389
tp1136
I1
s(I3859
I3860
tp1137
I1
s(I3015
I1938
tp1138
I1
s(I3974
I3975
tp1139
I1
s(I103
I104
tp1140
I1
s(I3746
I3747
tp1141
I1
s(I3439
I677
tp1142
I1
s(I2687
I2688
tp1143
I1
s(I2743
I1625
tp1144
I1
s(I3145
I3322
tp1145
I1
s(I4057
I4058
tp1146
I1
s(I404
I3980
tp1147
I1
s(I3066
I3067
tp1148
I1
s(I2906
I2907
tp1149
I1
s(I1975
I2875
tp1150
I1
s(I3156
I3157
tp1151
I1
s(I3511
I3512
tp1152
I1
s(I553
I520
tp1153
I1
s(I4134
I575
tp1154
I1
s(I3069
I3070
tp1155
I1
s(I3538
I3539
tp1156
I1
s(I4115
I4116
tp1157
I1
s(I3228
I3229
tp1158
I1
s(I2715
I2716
tp1159
I1
s(I2795
I2796
tp1160
I1
s(I2833
I2834
tp1161
I1
s(I2935
I2936
tp1162
I1
s(I4054
I4055
tp1163
I1
s(I3621
I3622
tp1164
I1
s(I3160
I70
tp1165
I1
s(I1661
I4106
tp1166
I1
s(I1610
I3564
tp1167
I1
s(I2793
I2794
tp1168
I1
s(I4098
I1568
tp1169
I1
s(I3186
I3187
tp1170
I1
s(I2888
I2889
tp1171
I1
s(I2631
I2632
tp1172
I1
s(I3102
I3103
tp1173
I1
s(I3307
I3308
tp1174
I1
s(I2830
I2077
tp1175
I1
s(I3858
I266
tp1176
I1
s(I2816
I2817
tp1177
I1
s(I3634
I3635
tp1178
I1
s(I2785
I2786
tp1179
I1
s(I2673
I2674
tp1180
I1
s(I3701
I3702
tp1181
I1
s(I2907
I2908
tp1182
I1
s(I3986
I3987
tp1183
I1
s(I2713
I2138
tp1184
I1
s(I2925
I2926
tp1185
I1
s(I852
I3751
tp1186
I1
s(I354
I67
tp1187
I1
s(I3118
I3119
tp1188
I1
s(I3649
I3650
tp1189
I1
s(I3527
I3528
tp1190
I1
s(I3703
I3704
tp1191
I1
s(I3732
I3733
tp1192
I1
s(I4074
I4075
tp1193
I1
s(I74
I3409
tp1194
I1
s(I2997
I2998
tp1195
I1
s(I3525
I3526
tp1196
I1
s(I2819
I2820
tp1197
I1
s(I3446
I3447
tp1198
I1
s(I3430
I3431
tp1199
I1
s(I3304
I3305
tp1200
I1
s(I3924
I1811
tp1201
I1
s(I2681
I2293
tp1202
I1
s(I2851
I2852
tp1203
I1
s(I404
I2276
tp1204
I1
s(I404
I3918
tp1205
I1
s(I278
I2805
tp1206
I1
s(I2963
I2964
tp1207
I1
s(I2965
I2966
tp1208
I1
s(I3426
I3427
tp1209
I1
s(I3084
I3085
tp1210
I1
s(I3235
I3236
tp1211
I1
s(I2628
I2629
tp1212
I1
s(I2091
I3290
tp1213
I1
s(I521
I3450
tp1214
I1
s(I3893
I3894
tp1215
I1
s(I3431
I3432
tp1216
I1
s(I3047
I3048
tp1217
I1
s(I3616
I3617
tp1218
I1
s(I3128
I3129
tp1219
I1
s(I3006
I3007
tp1220
I1
s(I3492
I74
tp1221
I1
s(I3198
I3199
tp1222
I1
s(I69
I3010
tp1223
I1
s(I3009
I68
tp1224
I1
s(I3017
I3018
tp1225
I1
s(I3561
I3562
tp1226
I1
s(I4034
I4035
tp1227
I1
s(I3351
I3352
tp1228
I1
s(I3846
I3847
tp1229
I1
s(I2697
I2698
tp1230
I1
s(I3805
I3806
tp1231
I1
s(I676
I2068
tp1232
I1
s(I3034
I3035
tp1233
I1
s(I2893
I2894
tp1234
I1
s(I4111
I4112
tp1235
I1
s(I3064
I560
tp1236
I1
s(I3389
I3390
tp1237
I1
s(I3877
I3878
tp1238
I1
s(I3902
I3903
tp1239
I1
s(I3918
I361
tp1240
I1
s(I3023
I3024
tp1241
I1
s(I2747
I2748
tp1242
I1
s(I1373
I3732
tp1243
I1
s(I431
I3608
tp1244
I1
s(I176
I3743
tp1245
I1
s(I3364
I3365
tp1246
I1
s(I3549
I3550
tp1247
I1
s(I2889
I2890
tp1248
I1
s(I3827
I3828
tp1249
I1
s(I3791
I3792
tp1250
I1
s(I2447
I3952
tp1251
I1
s(I3154
I3155
tp1252
I1
s(I3681
I1180
tp1253
I1
s(I1360
I3470
tp1254
I1
s(I3946
I3947
tp1255
I1
s(I3679
I3680
tp1256
I1
s(I776
I3567
tp1257
I1
s(I3280
I3281
tp1258
I1
s(I1255
I2883
tp1259
I1
s(I3512
I3513
tp1260
I1
s(I3915
I3916
tp1261
I1
s(I3213
I3214
tp1262
I1
s(I3309
I209
tp1263
I1
s(I3159
I3160
tp1264
I1
s(I3578
I3579
tp1265
I1
s(I3481
I3482
tp1266
I1
s(I2885
I2886
tp1267
I1
s(I1974
I1801
tp1268
I1
s(I802
I3175
tp1269
I1
s(I2809
I2069
tp1270
I1
s(I3604
I3535
tp1271
I1
s(I2983
I2984
tp1272
I1
s(I4132
I4133
tp1273
I1
s(I3292
I3566
tp1274
I1
s(I891
I3584
tp1275
I1
s(I3665
I3666
tp1276
I1
s(I3575
I3576
tp1277
I1
s(I3421
I3422
tp1278
I1
s(I3493
I3494
tp1279
I1
s(I210
I3310
tp1280
I1
s(I1490
I2769
tp1281
I1
s(I3468
I3469
tp1282
I1
s(I3074
I3075
tp1283
I1
s(I3240
I3241
tp1284
I1
s(I4043
I4044
tp1285
I1
s(I3942
I3943
tp1286
I1
s(I2867
I2868
tp1287
I1
s(I3294
I3295
tp1288
I1
s(I3322
I3323
tp1289
I1
s(I3473
I3474
tp1290
I1
s(I3306
I3307
tp1291
I1
s(I2617
I2618
tp1292
I1
s(I3425
I3426
tp1293
I1
s(I3402
I3403
tp1294
I1
s(I3317
I3318
tp1295
I1
s(I3887
I3888
tp1296
I1
s(I2818
I2819
tp1297
I1
s(I3516
I3517
tp1298
I1
s(I3779
I3780
tp1299
I1
s(I3282
I3283
tp1300
I1
s(I3428
I3429
tp1301
I1
s(I3471
I3472
tp1302
I1
s(I3413
I3414
tp1303
I1
s(I640
I3338
tp1304
I1
s(I2806
I2807
tp1305
I1
s(I3205
I3206
tp1306
I1
s(I3013
I3014
tp1307
I1
s(I460
I3315
tp1308
I1
s(I2811
I2812
tp1309
I1
s(I4036
I4037
tp1310
I1
s(I4020
I4021
tp1311
I1
s(I3063
I3064
tp1312
I1
s(I3331
I3332
tp1313
I1
s(I3960
I3961
tp1314
I1
s(I3329
I3330
tp1315
I1
s(I3480
I3481
tp1316
I1
s(I3219
I3220
tp1317
I1
s(I3002
I3003
tp1318
I1
s(I3928
I3929
tp1319
I1
s(I4105
I1661
tp1320
I1
s(I3980
I3981
tp1321
I1
s(I3762
I3763
tp1322
I1
s(I77
I3664
tp1323
I1
s(I3929
I3930
tp1324
I1
s(I1026
I3231
tp1325
I1
s(I4047
I957
tp1326
I1
s(I2727
I2728
tp1327
I1
s(I4079
I4080
tp1328
I1
s(I3393
I3394
tp1329
I1
s(I304
I3691
tp1330
I1
s(I485
I895
tp1331
I1
s(I2035
I3558
tp1332
I1
s(I72
I3244
tp1333
I1
s(I2917
I2918
tp1334
I1
s(I810
I3536
tp1335
I1
s(I2903
I2904
tp1336
I1
s(I2858
I2859
tp1337
I1
s(I575
I698
tp1338
I1
s(I2803
I2804
tp1339
I1
s(I841
I3741
tp1340
I1
s(I376
I4099
tp1341
I1
s(I2622
I2623
tp1342
I1
s(I104
I3559
tp1343
I1
s(I890
I880
tp1344
I1
s(I4107
I4108
tp1345
I1
s(I1560
I3818
tp1346
I1
s(I3937
I3938
tp1347
I1
s(I3720
I3721
tp1348
I1
s(I3289
I2091
tp1349
I1
s(I3814
I3815
tp1350
I1
s(I3798
I3799
tp1351
I1
s(I3495
I3496
tp1352
I1
s(I3085
I3086
tp1353
I1
s(I3323
I3324
tp1354
I1
s(I2092
I3936
tp1355
I1
s(I1026
I3971
tp1356
I1
s(I3577
I3578
tp1357
I1
s(I3786
I3787
tp1358
I1
s(I3513
I3514
tp1359
I1
s(I3828
I3829
tp1360
I1
s(I3838
I3839
tp1361
I1
s(I4091
I4092
tp1362
I1
s(I3670
I3671
tp1363
I1
s(I1180
I2597
tp1364
I1
s(I4103
I4104
tp1365
I1
s(I2971
I193
tp1366
I1
s(I4010
I4011
tp1367
I1
s(I1157
I3621
tp1368
I1
s(I3410
I3411
tp1369
I1
s(I2644
I2645
tp1370
I1
s(I2972
I2973
tp1371
I1
s(I3876
I3877
tp1372
I1
s(I3112
I3113
tp1373
I1
s(I67
I732
tp1374
I1
s(I2745
I2746
tp1375
I1
s(I3423
I3424
tp1376
I1
s(I2737
I2738
tp1377
I1
s(I3407
I3408
tp1378
I1
s(I3519
I3520
tp1379
I1
s(I1693
I1103
tp1380
I1
s(I3728
I3729
tp1381
I1
s(I3334
I3335
tp1382
I1
s(I3884
I3885
tp1383
I1
s(I2611
I2612
tp1384
I1
s(I3938
I3939
tp1385
I1
s(I3097
I3098
tp1386
I1
s(I3420
I3421
tp1387
I1
s(I3262
I404
tp1388
I1
s(I485
I2870
tp1389
I1
s(I1764
I1026
tp1390
I1
s(I3611
I3612
tp1391
I1
s(I3043
I3044
tp1392
I1
s(I3486
I3231
tp1393
I1
s(I3024
I3025
tp1394
I1
s(I2961
I2962
tp1395
I1
s(I3000
I3001
tp1396
I1
s(I2815
I2816
tp1397
I1
s(I3319
I3320
tp1398
I1
s(I2471
I3116
tp1399
I1
s(I3588
I3589
tp1400
I1
s(I4035
I4036
tp1401
I1
s(I3263
I3264
tp1402
I1
s(I3635
I3636
tp1403
I1
s(I3044
I3045
tp1404
I1
s(I4009
I4010
tp1405
I1
s(I3094
I3095
tp1406
I1
s(I3709
I631
tp1407
I1
s(I810
I2715
tp1408
I1
s(I3148
I3149
tp1409
I1
s(I3922
I3923
tp1410
I1
s(I482
I3173
tp1411
I1
s(I2999
I3000
tp1412
I1
s(I2694
I2695
tp1413
I1
s(I3361
I3362
tp1414
I1
s(I3427
I3428
tp1415
I1
s(I3908
I3909
tp1416
I1
s(I2904
I2905
tp1417
I1
s(I3374
I3375
tp1418
I1
s(I3892
I3893
tp1419
I1
s(I4021
I4022
tp1420
I1
s(I3035
I3036
tp1421
I1
s(I2881
I2882
tp1422
I1
s(I2738
I2739
tp1423
I1
s(I2735
I2736
tp1424
I1
s(I2861
I2862
tp1425
I1
s(I2876
I2369
tp1426
I1
s(I3218
I3219
tp1427
I1
s(I1033
I4115
tp1428
I1
s(I3087
I3088
tp1429
I1
s(I3837
I3838
tp1430
I1
s(I3563
I301
tp1431
I1
s(I3040
I193
tp1432
I1
s(I2922
I2923
tp1433
I1
s(I2652
I2653
tp1434
I1
s(I3909
I3910
tp1435
I1
s(I82
I4069
tp1436
I1
s(I4108
I4109
tp1437
I1
s(I4051
I4052
tp1438
I1
s(I3239
I505
tp1439
I1
s(I2598
I2599
tp1440
I1
s(I3810
I1452
tp1441
I1
s(I170
I3937
tp1442
I1
s(I3548
I3549
tp1443
I1
s(I3905
I3906
tp1444
I1
s(I3172
I1180
tp1445
I1
s(I3782
I3783
tp1446
I1
s(I2980
I2981
tp1447
I1
s(I79
I3833
tp1448
I1
s(I1645
I3374
tp1449
I1
s(I3711
I3712
tp1450
I1
s(I3382
I3383
tp1451
I1
s(I3889
I3890
tp1452
I1
s(I4023
I4024
tp1453
I1
s(I2995
I810
tp1454
I2
s(I4059
I4060
tp1455
I1
s(I3472
I3473
tp1456
I1
s(I2817
I2818
tp1457
I1
s(I3659
I3660
tp1458
I1
s(I3409
I3410
tp1459
I1
s(I1590
I3121
tp1460
I1
s(I3328
I3329
tp1461
I1
s(I3292
I3293
tp1462
I1
s(I3785
I3786
tp1463
I1
s(I1180
I482
tp1464
I1
s(I4124
I356
tp1465
I1
s(I2626
I2627
tp1466
I1
s(I4102
I4103
tp1467
I1
s(I3467
I3468
tp1468
I1
s(I3602
I3603
tp1469
I1
s(I1907
I3029
tp1470
I1
s(I3214
I3215
tp1471
I1
s(I2761
I2762
tp1472
I1
s(I3366
I3367
tp1473
I1
s(I3789
I3790
tp1474
I1
s(I3011
I3012
tp1475
I1
s(I3897
I826
tp1476
I1
s(I3020
I3021
tp1477
I1
s(I3212
I3213
tp1478
I1
s(I3025
I3026
tp1479
I1
s(I3278
I3279
tp1480
I1
s(I2975
I2976
tp1481
I1
s(I3643
I3644
tp1482
I1
s(I4070
I4071
tp1483
I1
s(I2658
I2659
tp1484
I1
s(I4038
I4039
tp1485
I1
s(I4030
I4031
tp1486
I1
s(I4022
I4023
tp1487
I1
s(I3133
I3134
tp1488
I1
s(I2978
I1000
tp1489
I1
s(I841
I2704
tp1490
I1
s(I2914
I2915
tp1491
I1
s(I2864
I2865
tp1492
I1
s(I2639
I2640
tp1493
I1
s(I3371
I3372
tp1494
I1
s(I4106
I4107
tp1495
I1
s(I1659
I3740
tp1496
I1
s(I2937
I841
tp1497
I1
s(I2938
I2939
tp1498
I1
s(I3313
I3314
tp1499
I1
s(I4088
I4089
tp1500
I1
s(I2989
I2990
tp1501
I1
s(I3668
I3669
tp1502
I1
s(I3238
I3239
tp1503
I1
s(I3932
I3933
tp1504
I1
s(I565
I1801
tp1505
I1
s(I2899
I2900
tp1506
I1
s(I3737
I3738
tp1507
I1
s(I2693
I2694
tp1508
I1
s(I2775
I85
tp1509
I1
s(I3780
I3781
tp1510
I1
s(I190
I4013
tp1511
I1
s(I2604
I2605
tp1512
I1
s(I3007
I3008
tp1513
I1
s(I2962
I2963
tp1514
I1
s(I3751
I3752
tp1515
I1
s(I3727
I3728
tp1516
I1
s(I3790
I3791
tp1517
I1
s(I4114
I1033
tp1518
I1
s(I2717
I2718
tp1519
I1
s(I3778
I3779
tp1520
I1
s(I2601
I2602
tp1521
I1
s(I2627
I2628
tp1522
I1
s(I2663
I2664
tp1523
I1
s(I2946
I2947
tp1524
I1
s(I3984
I3985
tp1525
I1
s(I3290
I3291
tp1526
I1
s(I2739
I2740
tp1527
I1
s(I3566
I776
tp1528
I1
s(I3283
I3284
tp1529
I1
s(I3184
I3185
tp1530
I1
s(I3944
I3945
tp1531
I1
s(I3107
I3108
tp1532
I1
s(I3672
I133
tp1533
I1
s(I2865
I2866
tp1534
I1
s(I2765
I2766
tp1535
I1
s(I3845
I3846
tp1536
I1
s(I3730
I3731
tp1537
I1
s(I2636
I2637
tp1538
I1
s(I3463
I3464
tp1539
I1
s(I3251
I784
tp1540
I1
s(I2634
I1531
tp1541
I1
s(I3429
I2751
tp1542
I1
s(I2678
I2679
tp1543
I1
s(I3461
I3462
tp1544
I1
s(I2754
I2755
tp1545
I1
s(I3536
I2228
tp1546
I1
s(I2942
I2102
tp1547
I1
s(I2952
I2953
tp1548
I1
s(I1974
I520
tp1549
I1
s(I2640
I1775
tp1550
I1
s(I3135
I3136
tp1551
I1
s(I3863
I505
tp1552
I1
s(I3457
I3458
tp1553
I1
s(I3129
I3130
tp1554
I1
s(I2746
I2747
tp1555
I1
s(I3120
I1590
tp1556
I1
s(I3948
I3949
tp1557
I1
s(I3775
I3776
tp1558
I1
s(I3415
I3416
tp1559
I1
s(I3951
I2447
tp1560
I1
s(I3768
I3769
tp1561
I1
s(I2812
I2813
tp1562
I1
s(I3558
I1026
tp1563
I1
s(I4061
I4062
tp1564
I1
s(I3068
I3069
tp1565
I1
s(I3303
I3304
tp1566
I1
s(I3046
I3047
tp1567
I1
s(I3038
I3039
tp1568
I1
s(I4097
I4098
tp1569
I1
s(I3379
I3380
tp1570
I1
s(I3287
I3288
tp1571
I1
s(I3136
I3137
tp1572
I1
s(I3325
I72
tp1573
I1
s(I950
I3286
tp1574
I1
s(I3772
I3773
tp1575
I1
s(I2992
I2993
tp1576
I1
s(I520
I3477
tp1577
I1
s(I2966
I2967
tp1578
I1
s(I3390
I3391
tp1579
I1
s(I4065
I4066
tp1580
I1
s(I3764
I3765
tp1581
I1
s(I2069
I2810
tp1582
I1
s(I2827
I2828
tp1583
I1
s(I677
I3240
tp1584
I1
s(I4131
I4132
tp1585
I1
s(I3553
I3554
tp1586
I1
s(I3241
I3242
tp1587
I1
s(I2662
I2663
tp1588
I1
s(I2730
I2731
tp1589
I1
s(I68
I2920
tp1590
I1
s(I3341
I3342
tp1591
I1
s(I2619
I2620
tp1592
I1
s(I3747
I3748
tp1593
I1
s(I3769
I3770
tp1594
I1
s(I2932
I2933
tp1595
I1
s(I2824
I776
tp1596
I1
s(I2756
I2757
tp1597
I1
s(I4012
I190
tp1598
I1
s(I3122
I2345
tp1599
I1
s(I776
I2825
tp1600
I1
s(I3470
I3471
tp1601
I1
s(I3917
I404
tp1602
I1
s(I2939
I2940
tp1603
I1
s(I3907
I3908
tp1604
I1
s(I425
I3857
tp1605
I1
s(I2902
I2903
tp1606
I1
s(I2773
I3413
tp1607
I1
s(I3150
I3151
tp1608
I1
s(I1580
I2587
tp1609
I1
s(I2749
I2750
tp1610
I1
s(I3699
I3700
tp1611
I1
s(I3708
I1123
tp1612
I1
s(I3784
I3785
tp1613
I1
s(I3125
I3126
tp1614
I1
s(I3934
I3935
tp1615
I1
s(I3221
I3222
tp1616
I1
s(I3682
I3683
tp1617
I1
s(I3476
I520
tp1618
I1
s(I2774
I2775
tp1619
I1
s(I3817
I1560
tp1620
I1
s(I3455
I3456
tp1621
I1
s(I3544
I3545
tp1622
I1
s(I3691
I3692
tp1623
I1
s(I2976
I2977
tp1624
I1
s(I3640
I3641
tp1625
I1
s(I3386
I3387
tp1626
I1
s(I3590
I3591
tp1627
I1
s(I575
I4135
tp1628
I1
s(I482
I3881
tp1629
I1
s(I3788
I3789
tp1630
I1
s(I3255
I3256
tp1631
I1
s(I3510
I2639
tp1632
I1
s(I3901
I3902
tp1633
I1
s(I3812
I3813
tp1634
I1
s(I3554
I3555
tp1635
I1
s(I3363
I3364
tp1636
I1
s(I3713
I575
tp1637
I1
s(I3840
I3841
tp1638
I1
s(I2635
I485
tp1639
I1
s(I2921
I2922
tp1640
I1
s(I1180
I3682
tp1641
I1
s(I3058
I1693
tp1642
I1
s(I3435
I193
tp1643
I1
s(I3598
I3599
tp1644
I1
s(I3336
I3337
tp1645
I1
s(I3187
I3188
tp1646
I1
s(I2880
I2881
tp1647
I1
s(I4096
I4097
tp1648
I1
s(I2657
I2658
tp1649
I1
s(I3725
I3726
tp1650
I1
s(I3196
I3197
tp1651
I1
s(I2733
I2734
tp1652
I1
s(I3683
I3684
tp1653
I1
s(I4075
I841
tp1654
I1
s(I520
I3253
tp1655
I1
s(I3445
I3446
tp1656
I1
s(I3723
I3724
tp1657
I1
s(I3358
I3359
tp1658
I1
s(I3249
I2384
tp1659
I1
s(I3079
I3080
tp1660
I1
s(I3766
I3767
tp1661
I1
s(I456
I2717
tp1662
I1
s(I3045
I3046
tp1663
I1
s(I760
I3346
tp1664
I1
s(I841
I3988
tp1665
I1
s(I4140
I1026
tp1666
I1
s(I2757
I2758
tp1667
I1
s(I2934
I2935
tp1668
I1
s(I4084
I4085
tp1669
I1
s(I3595
I3596
tp1670
I1
s(I3630
I1389
tp1671
I1
s(I3816
I3817
tp1672
I1
s(I3225
I3226
tp1673
I1
s(I267
I3158
tp1674
I1
s(I3016
I3017
tp1675
I1
s(I2929
I2930
tp1676
I1
s(I2688
I131
tp1677
I1
s(I3836
I3837
tp1678
I1
s(I4078
I4079
tp1679
I1
s(I3360
I3361
tp1680
I1
s(I3521
I3522
tp1681
I1
s(I3952
I3953
tp1682
I1
s(I3818
I3819
tp1683
I1
s(I3774
I3775
tp1684
I1
s(I3802
I3803
tp1685
I1
s(I3794
I3795
tp1686
I1
s(I3770
I3771
tp1687
I1
s(I3037
I3038
tp1688
I1
s(I78
I3744
tp1689
I1
s(I2669
I2670
tp1690
I1
s(I3299
I81
tp1691
I1
s(I2779
I2780
tp1692
I1
s(I3638
I3639
tp1693
I1
s(I3121
I3122
tp1694
I1
s(I2639
I3511
tp1695
I1
s(I3676
I3677
tp1696
I1
s(I3623
I3624
tp1697
I1
s(I2959
I2960
tp1698
I1
s(I3722
I3723
tp1699
I1
s(I3860
I3861
tp1700
I1
s(I2670
I2671
tp1701
I1
s(I3145
I3146
tp1702
I1
s(I4104
I1650
tp1703
I1
s(I3996
I3997
tp1704
I1
s(I3503
I3504
tp1705
I1
s(I3712
I1705
tp1706
I1
s(I4099
I4100
tp1707
I1
s(I3559
I3560
tp1708
I1
s(I3095
I3096
tp1709
I1
s(I3936
I170
tp1710
I1
s(I2825
I2826
tp1711
I1
s(I4125
I4126
tp1712
I1
s(I3622
I3623
tp1713
I1
s(I2854
I2855
tp1714
I1
s(I3408
I73
tp1715
I1
s(I3149
I3150
tp1716
I1
s(I2947
I2948
tp1717
I1
s(I565
I2626
tp1718
I1
s(I3352
I3353
tp1719
I1
s(I3972
I3973
tp1720
I1
s(I3506
I3507
tp1721
I1
s(I3003
I3004
tp1722
I1
s(I2852
I2853
tp1723
I1
s(I4130
I4131
tp1724
I1
s(I2691
I2692
tp1725
I1
s(I4119
I4120
tp1726
I1
s(I1680
I1153
tp1727
I1
s(I3247
I3248
tp1728
I1
s(I3581
I3582
tp1729
I1
s(I3231
I3232
tp1730
I1
s(I2840
I2841
tp1731
I1
s(I3886
I3887
tp1732
I1
s(I3541
I3542
tp1733
I1
s(I3078
I3079
tp1734
I1
s(I3174
I802
tp1735
I1
s(I3170
I3171
tp1736
I1
s(I3116
I3117
tp1737
I1
s(I4118
I4119
tp1738
I1
s(I3327
I3328
tp1739
I1
s(I732
I2899
tp1740
I1
s(I3296
I3297
tp1741
I1
s(I1574
I3811
tp1742
I1
s(I84
I2681
tp1743
I1
s(I2701
I2702
tp1744
I1
s(I613
I3824
tp1745
I1
s(I3505
I3506
tp1746
I1
s(I3787
I3788
tp1747
I1
s(I3190
I3191
tp1748
I1
s(I3171
I3172
tp1749
I1
s(I4081
I4082
tp1750
I1
s(I4073
I4074
tp1751
I1
s(I4037
I4038
tp1752
I1
s(I4049
I4050
tp1753
I1
s(I4100
I4101
tp1754
I1
s(I3056
I3057
tp1755
I1
s(I4135
I4136
tp1756
I1
s(I2923
I2924
tp1757
I1
s(I2769
I2770
tp1758
I1
s(I3741
I3742
tp1759
I1
s(I2820
I2821
tp1760
I1
s(I3935
I2092
tp1761
I1
s(I3343
I3344
tp1762
I1
s(I2751
I2752
tp1763
I1
s(I2744
I2745
tp1764
I1
s(I3326
I3327
tp1765
I1
s(I3842
I3843
tp1766
I1
s(I2842
I2843
tp1767
I1
s(I2679
I2680
tp1768
I1
s(I3449
I521
tp1769
I1
s(I1537
I852
tp1770
I1
s(I3489
I3490
tp1771
I1
s(I3080
I3081
tp1772
I1
s(I2794
I2795
tp1773
I1
s(I2102
I2943
tp1774
I1
s(I4055
I4056
tp1775
I1
s(I210
I3212
tp1776
I1
s(I4077
I4078
tp1777
I1
s(I3119
I3120
tp1778
I1
s(I3347
I3348
tp1779
I1
s(I3469
I1360
tp1780
I1
s(I2709
I2710
tp1781
I1
s(I698
I2635
tp1782
I1
s(I3666
I3667
tp1783
I1
s(I3571
I3572
tp1784
I1
s(I197
I3169
tp1785
I1
s(I3576
I75
tp1786
I1
s(I3719
I3720
tp1787
I1
s(I2784
I2785
tp1788
I1
s(I2684
I2685
tp1789
I1
s(I3200
I3201
tp1790
I1
s(I3318
I3319
tp1791
I1
s(I3504
I3505
tp1792
I1
s(I75
I3493
tp1793
I1
s(I2882
I159
tp1794
I1
s(I3685
I3686
tp1795
I1
s(I3019
I3020
tp1796
I1
s(I3355
I3356
tp1797
I1
s(I2696
I2697
tp1798
I1
s(I2656
I2657
tp1799
I1
s(I3594
I3595
tp1800
I1
s(I3564
I3565
tp1801
I1
s(I2879
I2880
tp1802
I1
s(I3841
I3842
tp1803
I1
s(I2712
I2713
tp1804
I1
s(I2630
I2631
tp1805
I1
s(I2704
I2705
tp1806
I1
s(I3444
I3445
tp1807
I1
s(I1568
I376
tp1808
I1
s(I505
I281
tp1809
I1
s(I2616
I2617
tp1810
I1
s(I3204
I3205
tp1811
I1
s(I882
I3954
tp1812
I1
s(I4082
I4083
tp1813
I1
s(I301
I1610
tp1814
I1
s(I2928
I2929
tp1815
I1
s(I4128
I4129
tp1816
I1
s(I4033
I4034
tp1817
I1
s(I3130
I3131
tp1818
I1
s(I4117
I4118
tp1819
I1
s(I3114
I3115
tp1820
I1
s(I2620
I2621
tp1821
I1
s(I2720
I2721
tp1822
I1
s(I3474
I3475
tp1823
I1
s(I3557
I2035
tp1824
I1
s(I957
I2326
tp1825
I1
s(I2809
I3618
tp1826
I1
s(I3662
I3663
tp1827
I1
s(I72
I3537
tp1828
I1
s(I3141
I3142
tp1829
I1
s(I2711
I2712
tp1830
I1
s(I2384
I3250
tp1831
I1
s(I209
I210
tp1832
I2
s(I3625
I3626
tp1833
I1
s(I2680
I83
tp1834
I1
s(I3866
I3867
tp1835
I1
s(I3276
I3277
tp1836
I1
s(I3733
I3734
tp1837
I1
s(I3707
I3708
tp1838
I1
s(I3484
I3485
tp1839
I1
s(I3688
I1716
tp1840
I1
s(I3193
I3194
tp1841
I1
s(I2836
I2837
tp1842
I1
s(I4109
I1340
tp1843
I1
s(I3687
I3688
tp1844
I1
s(I1716
I3689
tp1845
I1
s(I2869
I485
tp1846
I1
s(I3502
I3503
tp1847
I1
s(I3879
I3880
tp1848
I1
s(I4094
I4095
tp1849
I1
s(I3966
I3967
tp1850
I1
s(I4086
I4087
tp1851
I1
s(I3092
I3093
tp1852
I1
s(I2683
I2684
tp1853
I1
s(I3344
I3345
tp1854
I1
stRp1855
.