ccollections
Counter
p1
((dp2
I4096
I1
sI4097
I1
sI4098
I1
sI4099
I1
sI4100
I1
sI4101
I1
sI4102
I1
sI4103
I1
sI4104
I1
sI4105
I1
sI4106
I1
sI4107
I1
sI4108
I1
sI4109
I1
sI4110
I1
sI4111
I1
sI4112
I1
sI4113
I1
sI4114
I1
sI4115
I1
sI4116
I1
sI4117
I1
sI4118
I1
sI4119
I1
sI4120
I1
sI4121
I1
sI4122
I1
sI4123
I1
sI4124
I1
sI4125
I1
sI4126
I1
sI4127
I1
sI4128
I1
sI4129
I1
sI4130
I1
sI4131
I1
sI4132
I1
sI4133
I1
sI4134
I1
sI4135
I1
sI4136
I1
sI4137
I1
sI4138
I1
sI4139
I1
sI4140
I1
sI4141
I1
sI4142
I1
sI4143
I1
sI66
I1
sI67
I1
sI68
I1
sI69
I1
sI70
I1
sI71
I1
sI72
I2
sI73
I2
sI74
I1
sI75
I1
sI76
I1
sI77
I1
sI78
I1
sI79
I1
sI80
I1
sI81
I1
sI82
I1
sI83
I1
sI84
I1
sI85
I1
sI86
I1
sI103
I1
sI104
I4
sI131
I1
sI133
I1
sI156
I1
sI159
I1
sI170
I2
sI176
I1
sI184
I1
sI190
I1
sI193
I3
sI197
I1
sI209
I2
sI210
I2
sI243
I1
sI266
I1
sI267
I3
sI269
I2
sI278
I1
sI281
I1
sI285
I1
sI301
I1
sI304
I2
sI315
I1
sI337
I1
sI354
I5
sI356
I1
sI361
I1
sI376
I2
sI384
I2
sI404
I6
sI425
I1
sI431
I1
sI456
I1
sI460
I1
sI475
I2
sI481
I1
sI482
I3
sI485
I2
sI494
I1
sI505
I2
sI519
I1
sI520
I3
sI521
I1
sI547
I1
sI553
I2
sI560
I1
sI565
I4
sI575
I3
sI609
I1
sI613
I1
sI631
I1
sI640
I2
sI676
I2
sI677
I3
sI698
I3
sI732
I1
sI739
I1
sI760
I1
sI776
I2
sI784
I1
sI802
I1
sI810
I4
sI826
I1
sI833
I1
sI841
I4
sI852
I4
sI868
I1
sI878
I1
sI880
I1
sI882
I2
sI890
I1
sI891
I1
sI895
I1
sI922
I1
sI933
I1
sI950
I1
sI957
I1
sI1000
I1
sI1026
I4
sI1033
I1
sI1048
I1
sI1091
I1
sI1103
I3
sI1109
I1
sI1123
I1
sI1153
I1
sI1157
I1
sI1180
I3
sI1193
I1
sI1206
I1
sI1221
I3
sI1255
I1
sI1274
I1
sI1282
I1
sI1315
I1
sI1340
I1
sI1360
I2
sI1373
I1
sI1376
I1
sI1389
I2
sI1429
I1
sI1435
I1
sI1452
I1
sI1486
I1
sI1490
I1
sI1518
I1
sI1531
I1
sI1537
I1
sI1560
I1
sI1568
I1
sI1571
I2
sI1572
I2
sI1574
I2
sI1580
I1
sI1590
I1
sI1610
I1
sI1625
I1
sI1645
I1
sI1650
I1
sI1659
I1
sI1661
I1
sI1665
I1
sI1680
I1
sI1693
I1
sI1705
I1
sI1716
I1
sI1764
I1
sI1775
I1
sI1801
I3
sI1811
I1
sI1894
I1
sI1907
I1
sI1910
I1
sI1911
I1
sI1916
I1
sI1938
I2
sI1940
I1
sI1960
I1
sI1974
I4
sI1975
I1
sI1985
I1
sI2035
I1
sI2059
I1
sI2068
I2
sI2069
I1
sI2077
I2
sI2091
I1
sI2092
I1
sI2102
I1
sI2103
I1
sI2124
I1
sI2138
I1
sI2181
I1
sI2228
I1
sI2276
I1
sI2293
I1
sI2324
I1
sI2326
I1
sI2341
I1
sI2345
I1
sI2369
I1
sI2384
I1
sI2393
I1
sI2430
I1
sI2431
I1
sI2447
I1
sI2471
I1
sI2481
I1
sI2490
I1
sI2517
I1
sI2541
I1
sI2559
I1
sI2587
I1
sI2595
I1
sI2596
I1
sI2597
I1
sI2598
I1
sI2599
I1
sI2600
I1
sI2601
I1
sI2602
I1
sI2603
I1
sI2604
I1
sI2605
I1
sI2606
I1
sI2607
I1
sI2608
I1
sI2609
I1
sI2610
I1
sI2611
I1
sI2612
I1
sI2613
I1
sI2614
I1
sI2615
I1
sI2616
I1
sI2617
I1
sI2618
I1
sI2619
I1
sI2620
I1
sI2621
I1
sI2622
I1
sI2623
I1
sI2624
I1
sI2625
I1
sI2626
I1
sI2627
I1
sI2628
I1
sI2629
I1
sI2630
I1
sI2631
I1
sI2632
I1
sI2633
I1
sI2634
I2
sI2635
I1
sI2636
I1
sI2637
I1
sI2638
I1
sI2639
I2
sI2640
I1
sI2641
I1
sI2642
I1
sI2643
I1
sI2644
I1
sI2645
I1
sI2646
I1
sI2647
I1
sI2648
I1
sI2649
I1
sI2650
I1
sI2651
I1
sI2652
I1
sI2653
I1
sI2654
I1
sI2655
I1
sI2656
I1
sI2657
I1
sI2658
I1
sI2659
I1
sI2660
I1
sI2661
I1
sI2662
I2
sI2663
I1
sI2664
I1
sI2665
I1
sI2666
I1
sI2667
I1
sI2668
I1
sI2669
I1
sI2670
I1
sI2671
I2
sI2672
I2
sI2673
I1
sI2674
I1
sI2675
I1
sI2676
I1
sI2677
I1
sI2678
I1
sI2679
I1
sI2680
I1
sI2681
I1
sI2682
I1
sI2683
I1
sI2684
I1
sI2685
I1
sI2686
I1
sI2687
I1
sI2688
I1
sI2689
I1
sI2690
I1
sI2691
I1
sI2692
I1
sI2693
I1
sI2694
I1
sI2695
I1
sI2696
I1
sI2697
I1
sI2698
I1
sI2699
I1
sI2700
I1
sI2701
I1
sI2702
I1
sI2703
I1
sI2704
I2
sI2705
I1
sI2706
I1
sI2707
I1
sI2708
I1
sI2709
I1
sI2710
I1
sI2711
I1
sI2712
I1
sI2713
I1
sI2714
I1
sI2715
I1
sI2716
I1
sI2717
I1
sI2718
I1
sI2719
I1
sI2720
I1
sI2721
I1
sI2722
I1
sI2723
I1
sI2724
I1
sI2725
I1
sI2726
I1
sI2727
I1
sI2728
I1
sI2729
I1
sI2730
I1
sI2731
I1
sI2732
I1
sI2733
I1
sI2734
I1
sI2735
I1
sI2736
I1
sI2737
I1
sI2738
I1
sI2739
I1
sI2740
I1
sI2741
I1
sI2742
I1
sI2743
I1
sI2744
I1
sI2745
I1
sI2746
I1
sI2747
I1
sI2748
I1
sI2749
I1
sI2750
I1
sI2751
I2
sI2752
I1
sI2753
I1
sI2754
I1
sI2755
I1
sI2756
I1
sI2757
I1
sI2758
I1
sI2759
I1
sI2760
I1
sI2761
I1
sI2762
I1
sI2763
I1
sI2764
I1
sI2765
I1
sI2766
I1
sI2767
I1
sI2768
I2
sI2769
I1
sI2770
I1
sI2771
I1
sI2772
I1
sI2773
I2
sI2774
I1
sI2775
I1
sI2776
I1
sI2777
I1
sI2778
I1
sI2779
I1
sI2780
I1
sI2781
I1
sI2782
I2
sI2783
I1
sI2784
I1
sI2785
I1
sI2786
I1
sI2787
I1
sI2788
I1
sI2789
I1
sI2790
I1
sI2791
I1
sI2792
I1
sI2793
I1
sI2794
I1
sI2795
I1
sI2796
I1
sI2797
I1
sI2798
I1
sI2799
I1
sI2800
I1
sI2801
I1
sI2802
I1
sI2803
I1
sI2804
I1
sI2805
I1
sI2806
I1
sI2807
I1
sI2808
I1
sI2809
I2
sI2810
I1
sI2811
I1
sI2812
I1
sI2813
I1
sI2814
I1
sI2815
I1
sI2816
I1
sI2817
I1
sI2818
I1
sI2819
I1
sI2820
I1
sI2821
I1
sI2822
I1
sI2823
I1
sI2824
I1
sI2825
I1
sI2826
I1
sI2827
I1
sI2828
I1
sI2829
I1
sI2830
I1
sI2831
I1
sI2832
I1
sI2833
I1
sI2834
I2
sI2835
I1
sI2836
I1
sI2837
I1
sI2838
I1
sI2839
I1
sI2840
I1
sI2841
I1
sI2842
I1
sI2843
I1
sI2844
I1
sI2845
I1
sI2846
I1
sI2847
I1
sI2848
I1
sI2849
I1
sI2850
I1
sI2851
I1
sI2852
I1
sI2853
I1
sI2854
I1
sI2855
I1
sI2856
I1
sI2857
I1
sI2858
I1
sI2859
I1
sI2860
I1
sI2861
I2
sI2862
I1
sI2863
I1
sI2864
I1
sI2865
I1
sI2866
I1
sI2867
I1
sI2868
I1
sI2869
I1
sI2870
I1
sI2871
I1
sI2872
I1
sI2873
I1
sI2874
I1
sI2875
I1
sI2876
I1
sI2877
I1
sI2878
I1
sI2879
I1
sI2880
I1
sI2881
I1
sI2882
I1
sI2883
I1
sI2884
I1
sI2885
I1
sI2886
I1
sI2887
I1
sI2888
I1
sI2889
I1
sI2890
I1
sI2891
I1
sI2892
I1
sI2893
I1
sI2894
I1
sI2895
I1
sI2896
I1
sI2897
I1
sI2898
I1
sI2899
I1
sI2900
I1
sI2901
I1
sI2902
I1
sI2903
I1
sI2904
I1
sI2905
I1
sI2906
I1
sI2907
I1
sI2908
I1
sI2909
I1
sI2910
I1
sI2911
I1
sI2912
I1
sI2913
I2
sI2914
I1
sI2915
I1
sI2916
I1
sI2917
I1
sI2918
I1
sI2919
I1
sI2920
I1
sI2921
I1
sI2922
I1
sI2923
I1
sI2924
I1
sI2925
I1
sI2926
I1
sI2927
I1
sI2928
I1
sI2929
I1
sI2930
I1
sI2931
I1
sI2932
I1
sI2933
I1
sI2934
I1
sI2935
I1
sI2936
I1
sI2937
I1
sI2938
I1
sI2939
I1
sI2940
I1
sI2941
I1
sI2942
I1
sI2943
I1
sI2944
I1
sI2945
I1
sI2946
I1
sI2947
I1
sI2948
I1
sI2949
I1
sI2950
I1
sI2951
I1
sI2952
I1
sI2953
I1
sI2954
I1
sI2955
I1
sI2956
I1
sI2957
I1
sI2958
I1
sI2959
I1
sI2960
I1
sI2961
I1
sI2962
I1
sI2963
I1
sI2964
I1
sI2965
I1
sI2966
I1
sI2967
I1
sI2968
I1
sI2969
I1
sI2970
I1
sI2971
I1
sI2972
I1
sI2973
I1
sI2974
I1
sI2975
I1
sI2976
I1
sI2977
I1
sI2978
I1
sI2979
I1
sI2980
I1
sI2981
I1
sI2982
I1
sI2983
I1
sI2984
I1
sI2985
I1
sI2986
I1
sI2987
I1
sI2988
I1
sI2989
I1
sI2990
I1
sI2991
I1
sI2992
I1
sI2993
I1
sI2994
I1
sI2995
I2
sI2996
I1
sI2997
I1
sI2998
I1
sI2999
I1
sI3000
I1
sI3001
I1
sI3002
I1
sI3003
I1
sI3004
I1
sI3005
I1
sI3006
I1
sI3007
I1
sI3008
I1
sI3009
I1
sI3010
I1
sI3011
I1
sI3012
I1
sI3013
I1
sI3014
I1
sI3015
I1
sI3016
I1
sI3017
I1
sI3018
I1
sI3019
I1
sI3020
I1
sI3021
I1
sI3022
I1
sI3023
I1
sI3024
I1
sI3025
I1
sI3026
I1
sI3027
I1
sI3028
I1
sI3029
I1
sI3030
I1
sI3031
I1
sI3032
I1
sI3033
I1
sI3034
I1
sI3035
I1
sI3036
I1
sI3037
I1
sI3038
I1
sI3039
I1
sI3040
I2
sI3041
I1
sI3042
I1
sI3043
I1
sI3044
I1
sI3045
I2
sI3046
I1
sI3047
I1
sI3048
I1
sI3049
I1
sI3050
I1
sI3051
I1
sI3052
I1
sI3053
I1
sI3054
I1
sI3055
I1
sI3056
I1
sI3057
I1
sI3058
I1
sI3059
I2
sI3060
I1
sI3061
I1
sI3062
I1
sI3063
I1
sI3064
I1
sI3065
I1
sI3066
I1
sI3067
I1
sI3068
I1
sI3069
I1
sI3070
I1
sI3071
I1
sI3072
I1
sI3073
I1
sI3074
I1
sI3075
I1
sI3076
I1
sI3077
I1
sI3078
I1
sI3079
I1
sI3080
I1
sI3081
I1
sI3082
I1
sI3083
I1
sI3084
I1
sI3085
I1
sI3086
I1
sI3087
I1
sI3088
I1
sI3089
I1
sI3090
I1
sI3091
I2
sI3092
I1
sI3093
I1
sI3094
I1
sI3095
I1
sI3096
I1
sI3097
I1
sI3098
I1
sI3099
I1
sI3100
I1
sI3101
I1
sI3102
I1
sI3103
I1
sI3104
I1
sI3105
I1
sI3106
I2
sI3107
I1
sI3108
I1
sI3109
I1
sI3110
I1
sI3111
I1
sI3112
I1
sI3113
I1
sI3114
I1
sI3115
I1
sI3116
I1
sI3117
I1
sI3118
I1
sI3119
I1
sI3120
I1
sI3121
I1
sI3122
I1
sI3123
I1
sI3124
I1
sI3125
I1
sI3126
I1
sI3127
I1
sI3128
I1
sI3129
I1
sI3130
I1
sI3131
I1
sI3132
I2
sI3133
I1
sI3134
I1
sI3135
I1
sI3136
I1
sI3137
I1
sI3138
I1
sI3139
I1
sI3140
I1
sI3141
I1
sI3142
I1
sI3143
I1
sI3144
I1
sI3145
I3
sI3146
I1
sI3147
I1
sI3148
I1
sI3149
I2
sI3150
I1
sI3151
I1
sI3152
I1
sI3153
I1
sI3154
I1
sI3155
I1
sI3156
I1
sI3157
I1
sI3158
I1
sI3159
I1
sI3160
I1
sI3161
I1
sI3162
I1
sI3163
I1
sI3164
I1
sI3165
I1
sI3166
I1
sI3167
I1
sI3168
I1
sI3169
I1
sI3170
I1
sI3171
I1
sI3172
I1
sI3173
I1
sI3174
I1
sI3175
I1
sI3176
I1
sI3177
I1
sI3178
I1
sI3179
I1
sI3180
I1
sI3181
I1
sI3182
I1
sI3183
I1
sI3184
I1
sI3185
I1
sI3186
I1
sI3187
I1
sI3188
I1
sI3189
I1
sI3190
I1
sI3191
I1
sI3192
I1
sI3193
I1
sI3194
I1
sI3195
I1
sI3196
I1
sI3197
I1
sI3198
I1
sI3199
I1
sI3200
I1
sI3201
I1
sI3202
I1
sI3203
I1
sI3204
I1
sI3205
I1
sI3206
I1
sI3207
I1
sI3208
I1
sI3209
I1
sI3210
I1
sI3211
I1
sI3212
I1
sI3213
I1
sI3214
I1
sI3215
I1
sI3216
I1
sI3217
I1
sI3218
I1
sI3219
I1
sI3220
I1
sI3221
I1
sI3222
I1
sI3223
I1
sI3224
I1
sI3225
I1
sI3226
I1
sI3227
I1
sI3228
I1
sI3229
I1
sI3230
I1
sI3231
I2
sI3232
I1
sI3233
I1
sI3234
I1
sI3235
I1
sI3236
I1
sI3237
I1
sI3238
I1
sI3239
I1
sI3240
I1
sI3241
I1
sI3242
I2
sI3243
I1
sI3244
I1
sI3245
I1
sI3246
I1
sI3247
I1
sI3248
I1
sI3249
I1
sI3250
I1
sI3251
I1
sI3252
I1
sI3253
I1
sI3254
I1
sI3255
I1
sI3256
I1
sI3257
I1
sI3258
I1
sI3259
I1
sI3260
I1
sI3261
I1
sI3262
I1
sI3263
I1
sI3264
I1
sI3265
I1
sI3266
I1
sI3267
I1
sI3268
I1
sI3269
I1
sI3270
I1
sI3271
I1
sI3272
I1
sI3273
I1
sI3274
I1
sI3275
I1
sI3276
I1
sI3277
I1
sI3278
I1
sI3279
I1
sI3280
I1
sI3281
I1
sI3282
I1
sI3283
I1
sI3284
I1
sI3285
I1
sI3286
I1
sI3287
I1
sI3288
I1
sI3289
I1
sI3290
I1
sI3291
I1
sI3292
I3
sI3293
I2
sI3294
I1
sI3295
I1
sI3296
I1
sI3297
I1
sI3298
I1
sI3299
I2
sI3300
I1
sI3301
I1
sI3302
I1
sI3303
I1
sI3304
I1
sI3305
I1
sI3306
I1
sI3307
I1
sI3308
I1
sI3309
I1
sI3310
I1
sI3311
I1
sI3312
I1
sI3313
I1
sI3314
I1
sI3315
I1
sI3316
I1
sI3317
I1
sI3318
I1
sI3319
I1
sI3320
I1
sI3321
I1
sI3322
I1
sI3323
I1
sI3324
I1
sI3325
I1
sI3326
I1
sI3327
I1
sI3328
I1
sI3329
I1
sI3330
I1
sI3331
I1
sI3332
I1
sI3333
I1
sI3334
I1
sI3335
I1
sI3336
I1
sI3337
I1
sI3338
I1
sI3339
I1
sI3340
I1
sI3341
I1
sI3342
I1
sI3343
I1
sI3344
I1
sI3345
I1
sI3346
I1
sI3347
I1
sI3348
I1
sI3349
I1
sI3350
I1
sI3351
I1
sI3352
I1
sI3353
I1
sI3354
I1
sI3355
I1
sI3356
I1
sI3357
I1
sI3358
I1
sI3359
I1
sI3360
I1
sI3361
I1
sI3362
I1
sI3363
I1
sI3364
I1
sI3365
I1
sI3366
I1
sI3367
I1
sI3368
I1
sI3369
I1
sI3370
I1
sI3371
I1
sI3372
I1
sI3373
I1
sI3374
I1
sI3375
I1
sI3376
I1
sI3377
I1
sI3378
I1
sI3379
I1
sI3380
I1
sI3381
I1
sI3382
I1
sI3383
I1
sI3384
I1
sI3385
I1
sI3386
I1
sI3387
I1
sI3388
I1
sI3389
I1
sI3390
I1
sI3391
I1
sI3392
I1
sI3393
I1
sI3394
I1
sI3395
I1
sI3396
I1
sI3397
I1
sI3398
I1
sI3399
I1
sI3400
I1
sI3401
I1
sI3402
I1
sI3403
I1
sI3404
I1
sI3405
I1
sI3406
I1
sI3407
I1
sI3408
I1
sI3409
I1
sI3410
I1
sI3411
I1
sI3412
I1
sI3413
I1
sI3414
I1
sI3415
I1
sI3416
I1
sI3417
I1
sI3418
I1
sI3419
I1
sI3420
I1
sI3421
I1
sI3422
I1
sI3423
I1
sI3424
I1
sI3425
I1
sI3426
I1
sI3427
I1
sI3428
I1
sI3429
I1
sI3430
I1
sI3431
I1
sI3432
I1
sI3433
I1
sI3434
I1
sI3435
I1
sI3436
I1
sI3437
I1
sI3438
I1
sI3439
I2
sI3440
I1
sI3441
I1
sI3442
I1
sI3443
I1
sI3444
I1
sI3445
I1
sI3446
I1
sI3447
I1
sI3448
I1
sI3449
I1
sI3450
I1
sI3451
I1
sI3452
I1
sI3453
I1
sI3454
I1
sI3455
I1
sI3456
I1
sI3457
I1
sI3458
I1
sI3459
I1
sI3460
I1
sI3461
I1
sI3462
I1
sI3463
I1
sI3464
I1
sI3465
I1
sI3466
I1
sI3467
I1
sI3468
I1
sI3469
I1
sI3470
I1
sI3471
I1
sI3472
I1
sI3473
I1
sI3474
I1
sI3475
I1
sI3476
I1
sI3477
I1
sI3478
I1
sI3479
I1
sI3480
I1
sI3481
I1
sI3482
I1
sI3483
I1
sI3484
I1
sI3485
I1
sI3486
I1
sI3487
I1
sI3488
I1
sI3489
I1
sI3490
I1
sI3491
I1
sI3492
I1
sI3493
I1
sI3494
I1
sI3495
I1
sI3496
I1
sI3497
I1
sI3498
I1
sI3499
I1
sI3500
I1
sI3501
I1
sI3502
I1
sI3503
I1
sI3504
I1
sI3505
I1
sI3506
I1
sI3507
I1
sI3508
I1
sI3509
I1
sI3510
I1
sI3511
I1
sI3512
I1
sI3513
I1
sI3514
I1
sI3515
I1
sI3516
I1
sI3517
I1
sI3518
I1
sI3519
I1
sI3520
I1
sI3521
I1
sI3522
I1
sI3523
I1
sI3524
I1
sI3525
I1
sI3526
I1
sI3527
I1
sI3528
I1
sI3529
I1
sI3530
I1
sI3531
I1
sI3532
I1
sI3533
I1
sI3534
I1
sI3535
I2
sI3536
I1
sI3537
I1
sI3538
I1
sI3539
I1
sI3540
I1
sI3541
I1
sI3542
I1
sI3543
I1
sI3544
I1
sI3545
I1
sI3546
I1
sI3547
I1
sI3548
I1
sI3549
I1
sI3550
I1
sI3551
I1
sI3552
I1
sI3553
I1
sI3554
I1
sI3555
I1
sI3556
I1
sI3557
I1
sI3558
I1
sI3559
I1
sI3560
I1
sI3561
I1
sI3562
I1
sI3563
I1
sI3564
I1
sI3565
I1
sI3566
I1
sI3567
I1
sI3568
I1
sI3569
I1
sI3570
I1
sI3571
I1
sI3572
I1
sI3573
I1
sI3574
I1
sI3575
I1
sI3576
I1
sI3577
I1
sI3578
I1
sI3579
I1
sI3580
I1
sI3581
I1
sI3582
I1
sI3583
I1
sI3584
I1
sI3585
I1
sI3586
I1
sI3587
I1
sI3588
I1
sI3589
I1
sI3590
I1
sI3591
I1
sI3592
I1
sI3593
I1
sI3594
I1
sI3595
I1
sI3596
I1
sI3597
I1
sI3598
I1
sI3599
I1
sI3600
I1
sI3601
I1
sI3602
I1
sI3603
I1
sI3604
I1
sI3605
I1
sI3606
I1
sI3607
I1
sI3608
I1
sI3609
I1
sI3610
I1
sI3611
I1
sI3612
I1
sI3613
I1
sI3614
I1
sI3615
I1
sI3616
I1
sI3617
I1
sI3618
I1
sI3619
I1
sI3620
I1
sI3621
I1
sI3622
I1
sI3623
I1
sI3624
I1
sI3625
I1
sI3626
I1
sI3627
I1
sI3628
I1
sI3629
I1
sI3630
I1
sI3631
I1
sI3632
I1
sI3633
I1
sI3634
I1
sI3635
I1
sI3636
I1
sI3637
I1
sI3638
I1
sI3639
I1
sI3640
I1
sI3641
I1
sI3642
I1
sI3643
I1
sI3644
I1
sI3645
I1
sI3646
I1
sI3647
I1
sI3648
I1
sI3649
I1
sI3650
I1
sI3651
I1
sI3652
I1
sI3653
I1
sI3654
I1
sI3655
I1
sI3656
I1
sI3657
I1
sI3658
I1
sI3659
I1
sI3660
I1
sI3661
I1
sI3662
I1
sI3663
I1
sI3664
I1
sI3665
I1
sI3666
I1
sI3667
I1
sI3668
I1
sI3669
I1
sI3670
I1
sI3671
I1
sI3672
I1
sI3673
I1
sI3674
I1
sI3675
I1
sI3676
I1
sI3677
I1
sI3678
I1
sI3679
I1
sI3680
I1
sI3681
I1
sI3682
I1
sI3683
I1
sI3684
I1
sI3685
I1
sI3686
I1
sI3687
I1
sI3688
I1
sI3689
I1
sI3690
I1
sI3691
I1
sI3692
I1
sI3693
I1
sI3694
I1
sI3695
I1
sI3696
I1
sI3697
I1
sI3698
I1
sI3699
I1
sI3700
I1
sI3701
I1
sI3702
I1
sI3703
I1
sI3704
I1
sI3705
I1
sI3706
I1
sI3707
I1
sI3708
I1
sI3709
I1
sI3710
I2
sI3711
I1
sI3712
I1
sI3713
I1
sI3714
I2
sI3715
I1
sI3716
I1
sI3717
I1
sI3718
I1
sI3719
I1
sI3720
I1
sI3721
I1
sI3722
I1
sI3723
I1
sI3724
I1
sI3725
I1
sI3726
I1
sI3727
I1
sI3728
I1
sI3729
I1
sI3730
I1
sI3731
I1
sI3732
I1
sI3733
I1
sI3734
I1
sI3735
I1
sI3736
I1
sI3737
I1
sI3738
I1
sI3739
I1
sI3740
I1
sI3741
I1
sI3742
I1
sI3743
I1
sI3744
I1
sI3745
I1
sI3746
I1
sI3747
I1
sI3748
I1
sI3749
I1
sI3750
I1
sI3751
I1
sI3752
I1
sI3753
I1
sI3754
I1
sI3755
I1
sI3756
I1
sI3757
I1
sI3758
I1
sI3759
I1
sI3760
I1
sI3761
I1
sI3762
I1
sI3763
I1
sI3764
I1
sI3765
I1
sI3766
I1
sI3767
I1
sI3768
I1
sI3769
I1
sI3770
I1
sI3771
I1
sI3772
I1
sI3773
I1
sI3774
I1
sI3775
I1
sI3776
I1
sI3777
I1
sI3778
I1
sI3779
I1
sI3780
I1
sI3781
I1
sI3782
I1
sI3783
I1
sI3784
I1
sI3785
I1
sI3786
I1
sI3787
I1
sI3788
I1
sI3789
I1
sI3790
I1
sI3791
I1
sI3792
I1
sI3793
I1
sI3794
I1
sI3795
I1
sI3796
I1
sI3797
I1
sI3798
I1
sI3799
I1
sI3800
I1
sI3801
I1
sI3802
I1
sI3803
I1
sI3804
I1
sI3805
I1
sI3806
I1
sI3807
I1
sI3808
I1
sI3809
I1
sI3810
I1
sI3811
I1
sI3812
I1
sI3813
I1
sI3814
I1
sI3815
I1
sI3816
I1
sI3817
I1
sI3818
I1
sI3819
I1
sI3820
I1
sI3821
I1
sI3822
I1
sI3823
I1
sI3824
I1
sI3825
I1
sI3826
I1
sI3827
I1
sI3828
I1
sI3829
I1
sI3830
I1
sI3831
I1
sI3832
I1
sI3833
I1
sI3834
I1
sI3835
I1
sI3836
I1
sI3837
I1
sI3838
I1
sI3839
I1
sI3840
I1
sI3841
I1
sI3842
I1
sI3843
I1
sI3844
I1
sI3845
I1
sI3846
I1
sI3847
I1
sI3848
I1
sI3849
I1
sI3850
I1
sI3851
I1
sI3852
I1
sI3853
I1
sI3854
I1
sI3855
I1
sI3856
I1
sI3857
I1
sI3858
I1
sI3859
I1
sI3860
I1
sI3861
I1
sI3862
I1
sI3863
I1
sI3864
I1
sI3865
I1
sI3866
I1
sI3867
I1
sI3868
I1
sI3869
I1
sI3870
I1
sI3871
I1
sI3872
I1
sI3873
I1
sI3874
I1
sI3875
I1
sI3876
I1
sI3877
I1
sI3878
I1
sI3879
I1
sI3880
I1
sI3881
I1
sI3882
I1
sI3883
I1
sI3884
I1
sI3885
I1
sI3886
I1
sI3887
I1
sI3888
I1
sI3889
I1
sI3890
I1
sI3891
I1
sI3892
I1
sI3893
I1
sI3894
I1
sI3895
I1
sI3896
I1
sI3897
I1
sI3898
I1
sI3899
I1
sI3900
I1
sI3901
I1
sI3902
I1
sI3903
I1
sI3904
I1
sI3905
I1
sI3906
I1
sI3907
I1
sI3908
I1
sI3909
I1
sI3910
I1
sI3911
I1
sI3912
I1
sI3913
I1
sI3914
I1
sI3915
I1
sI3916
I1
sI3917
I1
sI3918
I1
sI3919
I1
sI3920
I1
sI3921
I1
sI3922
I1
sI3923
I1
sI3924
I1
sI3925
I1
sI3926
I1
sI3927
I2
sI3928
I1
sI3929
I1
sI3930
I1
sI3931
I1
sI3932
I1
sI3933
I1
sI3934
I1
sI3935
I1
sI3936
I1
sI3937
I1
sI3938
I1
sI3939
I1
sI3940
I1
sI3941
I1
sI3942
I1
sI3943
I1
sI3944
I1
sI3945
I1
sI3946
I1
sI3947
I1
sI3948
I1
sI3949
I1
sI3950
I1
sI3951
I1
sI3952
I1
sI3953
I1
sI3954
I1
sI3955
I1
sI3956
I1
sI3957
I1
sI3958
I1
sI3959
I1
sI3960
I1
sI3961
I1
sI3962
I1
sI3963
I1
sI3964
I1
sI3965
I1
sI3966
I1
sI3967
I1
sI3968
I1
sI3969
I1
sI3970
I1
sI3971
I1
sI3972
I1
sI3973
I1
sI3974
I1
sI3975
I1
sI3976
I1
sI3977
I1
sI3978
I1
sI3979
I1
sI3980
I2
sI3981
I1
sI3982
I1
sI3983
I1
sI3984
I1
sI3985
I1
sI3986
I1
sI3987
I1
sI3988
I1
sI3989
I1
sI3990
I1
sI3991
I1
sI3992
I1
sI3993
I1
sI3994
I1
sI3995
I1
sI3996
I1
sI3997
I1
sI3998
I1
sI3999
I1
sI4000
I1
sI4001
I1
sI4002
I1
sI4003
I1
sI4004
I1
sI4005
I1
sI4006
I1
sI4007
I1
sI4008
I1
sI4009
I1
sI4010
I1
sI4011
I1
sI4012
I1
sI4013
I1
sI4014
I1
sI4015
I1
sI4016
I1
sI4017
I1
sI4018
I1
sI4019
I1
sI4020
I1
sI4021
I1
sI4022
I1
sI4023
I1
sI4024
I1
sI4025
I1
sI4026
I1
sI4027
I1
sI4028
I1
sI4029
I1
sI4030
I1
sI4031
I1
sI4032
I1
sI4033
I1
sI4034
I1
sI4035
I1
sI4036
I1
sI4037
I1
sI4038
I1
sI4039
I1
sI4040
I1
sI4041
I1
sI4042
I1
sI4043
I1
sI4044
I1
sI4045
I1
sI4046
I1
sI4047
I1
sI4048
I1
sI4049
I1
sI4050
I1
sI4051
I1
sI4052
I1
sI4053
I1
sI4054
I1
sI4055
I1
sI4056
I1
sI4057
I1
sI4058
I1
sI4059
I1
sI4060
I1
sI4061
I1
sI4062
I1
sI4063
I1
sI4064
I1
sI4065
I1
sI4066
I1
sI4067
I1
sI4068
I1
sI4069
I1
sI4070
I1
sI4071
I1
sI4072
I1
sI4073
I1
sI4074
I1
sI4075
I1
sI4076
I1
sI4077
I1
sI4078
I1
sI4079
I1
sI4080
I1
sI4081
I1
sI4082
I1
sI4083
I1
sI4084
I1
sI4085
I1
sI4086
I1
sI4087
I1
sI4088
I1
sI4089
I1
sI4090
I1
sI4091
I1
sI4092
I1
sI4093
I1
sI4094
I1
sI4095
I1
stRp3
.